
StereoSystem.elf:     file format elf32-littlenios2
StereoSystem.elf
architecture: nios2, flags 0x00000112:
EXEC_P, HAS_SYMS, D_PAGED
start address 0x008001b8

Program Header:
    LOAD off    0x00001000 vaddr 0x00800000 paddr 0x00800000 align 2**12
         filesz 0x00000020 memsz 0x00000020 flags r-x
    LOAD off    0x00001020 vaddr 0x00800020 paddr 0x00800020 align 2**12
         filesz 0x00010434 memsz 0x00010434 flags r-x
    LOAD off    0x00011454 vaddr 0x00810454 paddr 0x00812068 align 2**12
         filesz 0x00001c14 memsz 0x00001c14 flags rw-
    LOAD off    0x00013c7c vaddr 0x00813c7c paddr 0x00813c7c align 2**12
         filesz 0x00000000 memsz 0x00000384 flags rw-

Sections:
Idx Name          Size      VMA       LMA       File off  Algn
  0 .entry        00000020  00800000  00800000  00001000  2**5
                  CONTENTS, ALLOC, LOAD, READONLY, CODE
  1 .exceptions   00000198  00800020  00800020  00001020  2**2
                  CONTENTS, ALLOC, LOAD, READONLY, CODE
  2 .text         0000fbac  008001b8  008001b8  000011b8  2**2
                  CONTENTS, ALLOC, LOAD, READONLY, CODE
  3 .rodata       000006f0  0080fd64  0080fd64  00010d64  2**2
                  CONTENTS, ALLOC, LOAD, READONLY, DATA
  4 .rwdata       00001c14  00810454  00812068  00011454  2**2
                  CONTENTS, ALLOC, LOAD, DATA, SMALL_DATA
  5 .bss          00000384  00813c7c  00813c7c  00013c7c  2**2
                  ALLOC, SMALL_DATA
  6 .comment      00000026  00000000  00000000  00013068  2**0
                  CONTENTS, READONLY
  7 .debug_aranges 00000dd8  00000000  00000000  00013090  2**3
                  CONTENTS, READONLY, DEBUGGING
  8 .debug_pubnames 00001b74  00000000  00000000  00013e68  2**0
                  CONTENTS, READONLY, DEBUGGING
  9 .debug_info   000293a8  00000000  00000000  000159dc  2**0
                  CONTENTS, READONLY, DEBUGGING
 10 .debug_abbrev 00008839  00000000  00000000  0003ed84  2**0
                  CONTENTS, READONLY, DEBUGGING
 11 .debug_line   000170ad  00000000  00000000  000475bd  2**0
                  CONTENTS, READONLY, DEBUGGING
 12 .debug_frame  00002104  00000000  00000000  0005e66c  2**2
                  CONTENTS, READONLY, DEBUGGING
 13 .debug_str    000024f4  00000000  00000000  00060770  2**0
                  CONTENTS, READONLY, DEBUGGING
 14 .debug_loc    0000caf3  00000000  00000000  00062c64  2**0
                  CONTENTS, READONLY, DEBUGGING
 15 .debug_alt_sim_info 00000030  00000000  00000000  0006f758  2**2
                  CONTENTS, READONLY, DEBUGGING
 16 .debug_ranges 00000990  00000000  00000000  0006f788  2**3
                  CONTENTS, READONLY, DEBUGGING
 17 .thread_model 00000003  00000000  00000000  00073cd8  2**0
                  CONTENTS, READONLY
 18 .cpu          0000000f  00000000  00000000  00073cdb  2**0
                  CONTENTS, READONLY
 19 .qsys         00000001  00000000  00000000  00073cea  2**0
                  CONTENTS, READONLY
 20 .simulation_enabled 00000001  00000000  00000000  00073ceb  2**0
                  CONTENTS, READONLY
 21 .stderr_dev   00000009  00000000  00000000  00073cec  2**0
                  CONTENTS, READONLY
 22 .stdin_dev    00000009  00000000  00000000  00073cf5  2**0
                  CONTENTS, READONLY
 23 .stdout_dev   00000009  00000000  00000000  00073cfe  2**0
                  CONTENTS, READONLY
 24 .sopc_system_name 0000000b  00000000  00000000  00073d07  2**0
                  CONTENTS, READONLY
 25 .quartus_project_dir 00000028  00000000  00000000  00073d12  2**0
                  CONTENTS, READONLY
 26 .jdi          00005a69  00000000  00000000  00073d3a  2**0
                  CONTENTS, READONLY
 27 .sopcinfo     000b352b  00000000  00000000  000797a3  2**0
                  CONTENTS, READONLY
SYMBOL TABLE:
00800000 l    d  .entry	00000000 .entry
00800020 l    d  .exceptions	00000000 .exceptions
008001b8 l    d  .text	00000000 .text
0080fd64 l    d  .rodata	00000000 .rodata
00810454 l    d  .rwdata	00000000 .rwdata
00813c7c l    d  .bss	00000000 .bss
00000000 l    d  .comment	00000000 .comment
00000000 l    d  .debug_aranges	00000000 .debug_aranges
00000000 l    d  .debug_pubnames	00000000 .debug_pubnames
00000000 l    d  .debug_info	00000000 .debug_info
00000000 l    d  .debug_abbrev	00000000 .debug_abbrev
00000000 l    d  .debug_line	00000000 .debug_line
00000000 l    d  .debug_frame	00000000 .debug_frame
00000000 l    d  .debug_str	00000000 .debug_str
00000000 l    d  .debug_loc	00000000 .debug_loc
00000000 l    d  .debug_alt_sim_info	00000000 .debug_alt_sim_info
00000000 l    d  .debug_ranges	00000000 .debug_ranges
00800200 l       .text	00000000 alt_after_alt_main
00000000 l    df *ABS*	00000000 alt_irq_handler.c
00000000 l    df *ABS*	00000000 Colder.c
00000000 l    df *ABS*	00000000 ISR_vectors.c
00000000 l    df *ABS*	00000000 Packet.c
00000000 l    df *ABS*	00000000 Queue.c
00000000 l    df *ABS*	00000000 RS232.c
00000000 l    df *ABS*	00000000 StereoSystem.c
00000000 l    df *ABS*	00000000 lib2-divmod.c
00802530 l     F .text	0000007c udivmodsi4
00000000 l    df *ABS*	00000000 malloc.c
00000000 l    df *ABS*	00000000 mallocr.c
00000000 l    df *ABS*	00000000 memcpy.c
00000000 l    df *ABS*	00000000 printf.c
00000000 l    df *ABS*	00000000 puts.c
00000000 l    df *ABS*	00000000 realloc.c
00000000 l    df *ABS*	00000000 mallocr.c
00000000 l    df *ABS*	00000000 sbrkr.c
00000000 l    df *ABS*	00000000 strlen.c
00000000 l    df *ABS*	00000000 strncpy.c
00000000 l    df *ABS*	00000000 vfprintf.c
00803760 l     F .text	00000058 __sprint_r
008100ba l     O .rodata	00000010 blanks.3452
008100aa l     O .rodata	00000010 zeroes.3453
00000000 l    df *ABS*	00000000 wsetup.c
00000000 l    df *ABS*	00000000 dtoa.c
008057c4 l     F .text	00000218 quorem
00000000 l    df *ABS*	00000000 fflush.c
00000000 l    df *ABS*	00000000 findfp.c
008071c0 l     F .text	00000058 std
008072cc l     F .text	00000008 __fp_lock
008072d4 l     F .text	00000008 __fp_unlock
00000000 l    df *ABS*	00000000 mallocr.c
00000000 l    df *ABS*	00000000 fvwrite.c
00000000 l    df *ABS*	00000000 fwalk.c
00000000 l    df *ABS*	00000000 impure.c
0081085c l     O .rwdata	00000400 impure_data
00000000 l    df *ABS*	00000000 int_errno.c
00000000 l    df *ABS*	00000000 locale.c
0081203c l     O .rwdata	00000004 charset
008100f0 l     O .rodata	00000030 lconv
00000000 l    df *ABS*	00000000 makebuf.c
00000000 l    df *ABS*	00000000 memchr.c
00000000 l    df *ABS*	00000000 memmove.c
00000000 l    df *ABS*	00000000 memset.c
00000000 l    df *ABS*	00000000 mprec.c
00810238 l     O .rodata	0000000c p05.2458
00000000 l    df *ABS*	00000000 s_isinfd.c
00000000 l    df *ABS*	00000000 s_isnand.c
00000000 l    df *ABS*	00000000 stdio.c
00000000 l    df *ABS*	00000000 strcmp.c
00000000 l    df *ABS*	00000000 writer.c
00000000 l    df *ABS*	00000000 mallocr.c
00000000 l    df *ABS*	00000000 closer.c
00000000 l    df *ABS*	00000000 fclose.c
00000000 l    df *ABS*	00000000 fstatr.c
00000000 l    df *ABS*	00000000 isattyr.c
00000000 l    df *ABS*	00000000 lseekr.c
00000000 l    df *ABS*	00000000 readr.c
00000000 l    df *ABS*	00000000 libgcc2.c
00000000 l    df *ABS*	00000000 libgcc2.c
00000000 l    df *ABS*	00000000 dp-bit.c
0080a61c l     F .text	00000410 _fpadd_parts
00000000 l    df *ABS*	00000000 dp-bit.c
00000000 l    df *ABS*	00000000 dp-bit.c
00000000 l    df *ABS*	00000000 dp-bit.c
00000000 l    df *ABS*	00000000 dp-bit.c
00000000 l    df *ABS*	00000000 dp-bit.c
00000000 l    df *ABS*	00000000 dp-bit.c
00000000 l    df *ABS*	00000000 dp-bit.c
00000000 l    df *ABS*	00000000 dp-bit.c
00000000 l    df *ABS*	00000000 dp-bit.c
00000000 l    df *ABS*	00000000 dp-bit.c
00000000 l    df *ABS*	00000000 dp-bit.c
00000000 l    df *ABS*	00000000 libgcc2.c
00000000 l    df *ABS*	00000000 libgcc2.c
00000000 l    df *ABS*	00000000 libgcc2.c
00000000 l    df *ABS*	00000000 dp-bit.c
00000000 l    df *ABS*	00000000 dp-bit.c
00000000 l    df *ABS*	00000000 dp-bit.c
00000000 l    df *ABS*	00000000 alt_alarm_start.c
00000000 l    df *ABS*	00000000 alt_close.c
0080bfc4 l     F .text	00000060 alt_get_errno
00000000 l    df *ABS*	00000000 alt_dev.c
0080c024 l     F .text	0000002c alt_dev_null_write
00000000 l    df *ABS*	00000000 alt_errno.c
00000000 l    df *ABS*	00000000 alt_fstat.c
0080c124 l     F .text	00000060 alt_get_errno
00000000 l    df *ABS*	00000000 alt_isatty.c
0080c244 l     F .text	00000060 alt_get_errno
00000000 l    df *ABS*	00000000 alt_load.c
0080c324 l     F .text	0000006c alt_load_section
00000000 l    df *ABS*	00000000 alt_lseek.c
0080c480 l     F .text	00000060 alt_get_errno
00000000 l    df *ABS*	00000000 alt_main.c
00000000 l    df *ABS*	00000000 alt_malloc_lock.c
00000000 l    df *ABS*	00000000 alt_read.c
0080c6ac l     F .text	00000060 alt_get_errno
00000000 l    df *ABS*	00000000 alt_release_fd.c
00000000 l    df *ABS*	00000000 alt_sbrk.c
00812058 l     O .rwdata	00000004 heap_end
00000000 l    df *ABS*	00000000 alt_tick.c
00000000 l    df *ABS*	00000000 alt_write.c
0080caec l     F .text	00000060 alt_get_errno
00000000 l    df *ABS*	00000000 alt_sys_init.c
00810e10 l     O .rwdata	00001060 jtag_uart
00811e70 l     O .rwdata	00000030 audio_and_video_config_0
00811ea0 l     O .rwdata	00000030 audio
00811ed0 l     O .rwdata	0000002c character_lcd_0
00811efc l     O .rwdata	00000038 ps2_0
00811f34 l     O .rwdata	0000002c rs232_0
00811f60 l     O .rwdata	00000048 char_drawer
00811fa8 l     O .rwdata	00000054 pixel_buffer_dma_0
00811ffc l     O .rwdata	0000002c SD_Card
0080cf18 l     F .text	00000038 alt_dev_reg
00000000 l    df *ABS*	00000000 altera_avalon_jtag_uart_fd.c
00000000 l    df *ABS*	00000000 altera_avalon_jtag_uart_init.c
0080d150 l     F .text	0000022c altera_avalon_jtag_uart_irq
0080d37c l     F .text	000000b0 altera_avalon_jtag_uart_timeout
00000000 l    df *ABS*	00000000 altera_avalon_jtag_uart_ioctl.c
00000000 l    df *ABS*	00000000 altera_avalon_jtag_uart_read.c
00000000 l    df *ABS*	00000000 altera_avalon_jtag_uart_write.c
00000000 l    df *ABS*	00000000 altera_avalon_timer_sc.c
0080d9f8 l     F .text	00000074 alt_avalon_timer_sc_irq
00000000 l    df *ABS*	00000000 altera_avalon_timer_vars.c
00000000 l    df *ABS*	00000000 altera_up_avalon_character_lcd.c
00000000 l    df *ABS*	00000000 altera_up_avalon_ps2.c
00000000 l    df *ABS*	00000000 altera_up_avalon_rs232.c
00000000 l    df *ABS*	00000000 altera_up_avalon_video_character_buffer_with_dma.c
00000000 l    df *ABS*	00000000 alt_dcache_flush_all.c
00000000 l    df *ABS*	00000000 alt_dev_llist_insert.c
0080eeb8 l     F .text	00000060 alt_get_errno
00000000 l    df *ABS*	00000000 alt_do_ctors.c
00000000 l    df *ABS*	00000000 alt_do_dtors.c
00000000 l    df *ABS*	00000000 alt_find_dev.c
00000000 l    df *ABS*	00000000 alt_icache_flush_all.c
00000000 l    df *ABS*	00000000 alt_io_redirect.c
0080f0a4 l     F .text	000000c4 alt_open_fd
00000000 l    df *ABS*	00000000 alt_irq_register.c
00000000 l    df *ABS*	00000000 alt_irq_vars.c
00000000 l    df *ABS*	00000000 alt_open.c
0080f3a0 l     F .text	000000dc alt_file_locked
0080f604 l     F .text	00000060 alt_get_errno
00000000 l    df *ABS*	00000000 altera_nios2_qsys_irq.c
00000000 l    df *ABS*	00000000 alt_find_file.c
00000000 l    df *ABS*	00000000 alt_get_fd.c
00000000 l    df *ABS*	00000000 alt_icache_flush.c
00000000 l    df *ABS*	00000000 atexit.c
00000000 l    df *ABS*	00000000 exit.c
00000000 l    df *ABS*	00000000 memcmp.c
00000000 l    df *ABS*	00000000 __atexit.c
00000000 l    df *ABS*	00000000 __call_atexit.c
0080fae0 l     F .text	00000004 register_fini
00000000 l    df *ABS*	00000000 alt_exit.c
0080fc94 l     F .text	00000040 alt_sim_halt
008003c8 g     F .text	00000160 decode
0080879c g     F .text	00000094 _mprec_log10
00808888 g     F .text	00000088 __any_on
00809930 g     F .text	00000070 _isatty_r
00810210 g     O .rodata	00000028 __mprec_tinytens
0080c4e0 g     F .text	0000006c alt_main
00800528 g     F .text	00000140 decodeString
00802efc g     F .text	000000a0 _puts_r
00813d70 g     O .bss	00000100 alt_irq
0080e270 g     F .text	00000058 alt_up_ps2_disable_read_interrupt
008099a0 g     F .text	00000078 _lseek_r
00812068 g       *ABS*	00000000 __flash_rwdata_start
0080db70 g     F .text	00000034 alt_up_character_lcd_send_cmd
0080b13c g     F .text	00000088 __eqdf2
00814000 g       *ABS*	00000000 __alt_heap_start
00802e84 g     F .text	00000044 printf
008093fc g     F .text	00000068 __sseek
00807228 g     F .text	000000a4 __sinit
0080ec50 g     F .text	00000114 alt_up_char_buffer_string
0080e088 g     F .text	00000034 read_CE_bit
00807f00 g     F .text	00000084 _setlocale_r
00807328 g     F .text	00000068 __sfmoreglue
00801c80 g     F .text	0000008c checkStartAck
0080c56c g     F .text	00000020 __malloc_unlock
0080e41c g     F .text	000000b0 alt_up_ps2_read_data_byte_timeout
0080e958 g     F .text	00000090 alt_up_rs232_read_fd
00813c7c g     O .bss	00000004 queue_lock
0080eb80 g     F .text	000000d0 alt_up_char_buffer_draw
00813cbc g     O .bss	00000004 altera_avalon_timer_ts_freq
00808218 g     F .text	000000e0 memmove
00807318 g     F .text	00000010 _cleanup
00808910 g     F .text	000000bc _Balloc
0080b24c g     F .text	00000088 __gtdf2
00801d0c g     F .text	000000a8 updateAcknowledge
00000000  w      *UND*	00000000 __errno
0080daf4 g     F .text	0000007c get_DDRAM_addr
00800000 g     F .entry	0000001c __reset
00800020 g       *ABS*	00000000 __flash_exceptions_start
008098bc g     F .text	00000074 _fstat_r
00813c94 g     O .bss	00000004 errno
00801db4 g     F .text	00000160 sendStats
00813ca8 g     O .bss	00000004 alt_argv
0081a028 g       *ABS*	00000000 _gp
008021d8 g     F .text	000001cc reset
00810c90 g     O .rwdata	00000180 alt_fd_list
0080efe0 g     F .text	00000094 alt_find_dev
00802de4 g     F .text	000000a0 memcpy
0080dd08 g     F .text	0000004c alt_up_character_lcd_write_fd
0080ed64 g     F .text	0000005c alt_up_char_buffer_clear
0080730c g     F .text	0000000c _cleanup_r
0080b3e4 g     F .text	000000f8 __floatsidf
0080f168 g     F .text	00000078 alt_io_redirect
0080b35c g     F .text	00000088 __ltdf2
0080fd64 g       *ABS*	00000000 __DTOR_END__
0080e8e4 g     F .text	00000074 alt_up_rs232_read_data
00802f9c g     F .text	00000014 puts
008086ec g     F .text	000000b0 __ratio
0080d594 g     F .text	00000224 altera_avalon_jtag_uart_read
00802690 g     F .text	00000014 malloc
00802ec8 g     F .text	00000034 _printf_r
0080266c g     F .text	00000008 __udivsi3
0080c184 g     F .text	000000c0 isatty
00810120 g     O .rodata	000000c8 __mprec_tens
008011b4 g     F .text	00000160 setHeader
00807edc g     F .text	00000008 __locale_charset
0080f85c g     F .text	00000090 alt_icache_flush
00813c88 g     O .bss	00000004 __malloc_top_pad
00801c10 g     F .text	00000070 sendStartInit
00812038 g     O .rwdata	00000004 __mb_cur_max
00807ee4 g     F .text	0000000c _localeconv_r
00809008 g     F .text	0000003c __i2b
008078c0 g     F .text	0000049c __sfvwrite_r
008035c0 g     F .text	00000070 _sbrk_r
00813c80 g     O .bss	00000008 up_dev
00809a18 g     F .text	00000078 _read_r
00810c5c g     O .rwdata	0000000c __lc_ctype
00812050 g     O .rwdata	00000004 alt_max_fd
0080e84c g     F .text	00000050 alt_up_rs232_check_parity
0080bb74 g     F .text	00000138 __unpack_d
00809798 g     F .text	00000110 _fclose_r
0080e0bc g     F .text	00000034 read_num_bytes_available
0080718c g     F .text	00000034 fflush
00813c8c g     O .bss	00000004 __malloc_max_sbrked_mem
0080f1e0 g     F .text	000001c0 alt_irq_register
0080e024 g     F .text	00000034 read_RI_bit
008014cc g     F .text	00000038 getBit
0080aaac g     F .text	00000074 __adddf3
00801550 g     F .text	00000048 setAck
00813cec g     O .bss	0000006c com
008085cc g     F .text	00000120 __b2d
00800668 g     F .text	00000028 decodeCmd
0080a06c g     F .text	000005b0 __umoddi3
0080c390 g     F .text	000000f0 lseek
00812034 g     O .rwdata	00000004 _global_impure_ptr
00800204 g     F .text	000001c4 encodeString
00802fcc g     F .text	000005f4 _realloc_r
00814000 g       *ABS*	00000000 __bss_end
0080c8c0 g     F .text	0000010c alt_tick
008023a4 g     F .text	00000070 sendRS232
00809a90 g     F .text	000005dc __udivdi3
00801b54 g     F .text	000000bc send
008101e8 g     O .rodata	00000028 __mprec_bigtens
00809264 g     F .text	00000120 __s2b
00801f14 g     F .text	000000e8 sendAck
0080b5b4 g     F .text	00000194 __floatunsidf
00801598 g     F .text	00000174 strnsep_
008084ec g     F .text	00000060 __mcmp
0080e124 g     F .text	0000002c read_data_byte
008072f4 g     F .text	00000018 __fp_lock_all
00813d58 g     O .bss	00000018 alarm
0080c828 g     F .text	00000098 alt_alarm_stop
0080e058 g     F .text	00000030 read_RE_bit
0080170c g     F .text	0000004c initQueue
00813cc0 g     O .bss	00000004 alt_irq_active
008000ec g     F .exceptions	000000cc alt_irq_handler
00810c68 g     O .rwdata	00000028 alt_dev_null
0080dff0 g     F .text	00000034 alt_up_character_lcd_cursor_blink_on
0080e2c8 g     F .text	00000078 alt_up_ps2_write_data_byte
0080edc0 g     F .text	00000044 alt_dcache_flush_all
008083b8 g     F .text	00000070 __hi0bits
0080b4dc g     F .text	000000d8 __fixdfsi
00812068 g       *ABS*	00000000 __ram_rwdata_end
00812048 g     O .rwdata	00000008 alt_dev_list
00802184 g     F .text	00000054 setStates
0080c9cc g     F .text	00000120 write
00810454 g       *ABS*	00000000 __ram_rodata_end
0080c050 g     F .text	000000d4 fstat
0080e9e8 g     F .text	00000094 alt_up_rs232_write_fd
00809144 g     F .text	00000120 __pow5mult
00813c98 g     O .bss	00000004 __nlocale_changed
00802674 g     F .text	00000008 __umodsi3
00814000 g       *ABS*	00000000 end
0080e63c g     F .text	000000a8 alt_up_ps2_write_fd
0080eabc g     F .text	00000084 alt_up_char_buffer_init
0080d098 g     F .text	000000b8 altera_avalon_jtag_uart_init
0080fd60 g       *ABS*	00000000 __CTOR_LIST__
01000000 g       *ABS*	00000000 __alt_stack_pointer
0080da6c g     F .text	00000088 alt_avalon_timer_sc_init
0080b7e0 g     F .text	00000080 __clzsi2
0080d7b8 g     F .text	00000240 altera_avalon_jtag_uart_write
00807218 g     F .text	00000004 __sfp_lock_acquire
00808134 g     F .text	000000e4 memchr
0080dc18 g     F .text	00000078 alt_up_character_lcd_write
008037b8 g     F .text	00001eac ___vfprintf_internal_r
008075ac g     F .text	00000314 _free_r
0080fae4 g     F .text	000001b0 __call_exitprocs
00813c9c g     O .bss	00000004 __mlocale_changed
0081202c g     O .rwdata	00000004 __malloc_sbrk_base
008001b8 g     F .text	0000004c _start
00813cb0 g     O .bss	00000004 _alt_tick_rate
00808cd4 g     F .text	0000014c __lshift
00813cb4 g     O .bss	00000004 _alt_nticks
0080c58c g     F .text	00000120 read
0080cb80 g     F .text	00000398 alt_sys_init
0080de7c g     F .text	000000b0 alt_up_character_lcd_shift_display
0080f9ac g     F .text	00000134 __register_exitproc
0080e548 g     F .text	00000058 alt_up_ps2_clear_fifo
0080e80c g     F .text	00000040 alt_up_rs232_get_available_space_in_write_FIFO
00808e20 g     F .text	000001e8 __multiply
0080df2c g     F .text	00000090 alt_up_character_lcd_erase_pos
0080d42c g     F .text	00000074 altera_avalon_jtag_uart_close
008006b8 g     F .text	00000984 RS232_ISR
00810454 g       *ABS*	00000000 __ram_rwdata_start
0080fd64 g       *ABS*	00000000 __ram_rodata_start
008036a4 g     F .text	000000bc strncpy
00813cc4 g     O .bss	00000028 __malloc_current_mallinfo
008089cc g     F .text	0000017c __d2b
00802fb0 g     F .text	0000001c realloc
0080cf50 g     F .text	00000058 altera_avalon_jtag_uart_read_fd
0080f7a4 g     F .text	000000b8 alt_get_fd
0080bcac g     F .text	000000c8 __fpcmp_parts_d
00809728 g     F .text	00000070 _close_r
0080f938 g     F .text	00000074 memcmp
0080d000 g     F .text	00000048 altera_avalon_jtag_uart_close_fd
00814000 g       *ABS*	00000000 __alt_stack_base
0080d048 g     F .text	00000050 altera_avalon_jtag_uart_ioctl_fd
00805688 g     F .text	0000013c __swsetup_r
0080aee4 g     F .text	00000258 __divdf3
00807390 g     F .text	000000f0 __sfp
00808830 g     F .text	00000058 __copybits
00810454 g     O .rwdata	00000408 __malloc_av_
00807224 g     F .text	00000004 __sinit_lock_release
0080ab20 g     F .text	000003c4 __muldf3
008094e0 g     F .text	00000060 __sread
0080e778 g     F .text	00000058 alt_up_rs232_disable_read_interrupt
0080f684 g     F .text	00000120 alt_find_file
0080ee04 g     F .text	000000b4 alt_dev_llist_insert
0080c54c g     F .text	00000020 __malloc_lock
0080c76c g     F .text	000000bc sbrk
00806f90 g     F .text	000001fc _fflush_r
00809674 g     F .text	000000b4 _calloc_r
00813c7c g       *ABS*	00000000 __bss_start
00801504 g     F .text	0000004c setBit
008082f8 g     F .text	00000098 memset
00802414 g     F .text	0000011c main
00813cac g     O .bss	00000004 alt_envp
00813c90 g     O .bss	00000004 __malloc_max_total_mem
0080eb40 g     F .text	00000040 alt_up_char_buffer_open_dev
0080cfa8 g     F .text	00000058 altera_avalon_jtag_uart_write_fd
00802118 g     F .text	0000006c failReceive
0080103c g     F .text	000000e8 initPacket
0080ddcc g     F .text	000000b0 alt_up_character_lcd_shift_cursor
008093f4 g     F .text	00000008 __sclose
01000000 g       *ABS*	00000000 __alt_heap_limit
008098a8 g     F .text	00000014 fclose
0080e4cc g     F .text	0000007c alt_up_ps2_read_data_byte
00802034 g     F .text	000000e4 checkAck
00813e70 g     O .bss	00000190 _atexit0
008059dc g     F .text	000015b4 _dtoa_r
008026a4 g     F .text	00000740 _malloc_r
00812054 g     O .rwdata	00000004 alt_errno
00801124 g     F .text	00000090 killPacket
00807e24 g     F .text	000000b8 _fwalk
0080e6e4 g     F .text	00000040 alt_up_ps2_open_dev
008025ac g     F .text	00000060 __divsi3
00810244 g     O .rodata	00000014 __thenan_df
0080dbd8 g     F .text	00000040 alt_up_character_lcd_open_dev
00807480 g     F .text	0000012c _malloc_trim_r
0080e21c g     F .text	00000054 alt_up_ps2_enable_read_interrupt
008019a8 g     F .text	0000006c killQueueData
0080fd64 g       *ABS*	00000000 __CTOR_END__
0080dba4 g     F .text	00000034 alt_up_character_lcd_init
00809540 g     F .text	000000bc strcmp
0080fd64 g       *ABS*	00000000 __flash_rodata_start
0080fd64 g       *ABS*	00000000 __DTOR_LIST__
0080ea7c g     F .text	00000040 alt_up_rs232_open_dev
0080b1c4 g     F .text	00000088 __nedf2
0080cb4c g     F .text	00000034 alt_irq_init
0080c70c g     F .text	00000060 alt_release_fd
0080e0f0 g     F .text	00000034 read_data_valid
0080dfbc g     F .text	00000034 alt_up_character_lcd_cursor_off
00810258 g     O .rodata	00000100 __clz_tab
00813ca0 g     O .bss	00000004 _PathLocale
0080e3b0 g     F .text	0000006c alt_up_ps2_write_data_byte_with_ack
0080f8ec g     F .text	00000014 atexit
008095fc g     F .text	00000078 _write_r
00807f84 g     F .text	0000001c setlocale
00812030 g     O .rwdata	00000004 _impure_ptr
00813ca4 g     O .bss	00000004 alt_argc
00813cb8 g     O .bss	00000004 altera_avalon_timer_ts_base
0080ef7c g     F .text	00000064 _do_dtors
00800020 g       .exceptions	00000000 alt_irq_entry
0080854c g     F .text	00000080 __ulp
00809384 g     F .text	00000040 __isinfd
008072dc g     F .text	00000018 __fp_unlock_all
00812040 g     O .rwdata	00000008 alt_fs_list
0080e724 g     F .text	00000054 alt_up_rs232_enable_read_interrupt
0080e89c g     F .text	00000048 alt_up_rs232_write_data
00801758 g     F .text	0000014c enqueue
00800020 g       *ABS*	00000000 __ram_exceptions_start
00807ef0 g     F .text	00000010 localeconv
00801a14 g     F .text	00000140 initRS232
00801314 g     F .text	000001b8 readPacketHeader
008018a4 g     F .text	00000104 dequeue
00812068 g       *ABS*	00000000 _edata
00814000 g       *ABS*	00000000 _end
008001b8 g       *ABS*	00000000 __ram_exceptions_end
0080d4a0 g     F .text	000000f4 altera_avalon_jtag_uart_ioctl
00809464 g     F .text	0000007c __swrite
00812028 g     O .rwdata	00000004 __malloc_trim_threshold
0080f664 g     F .text	00000020 altera_nios2_qsys_irq_init
0080f900 g     F .text	00000038 exit
00807d5c g     F .text	000000c8 _fwalk_reent
0080e150 g     F .text	000000cc alt_up_ps2_init
00808b48 g     F .text	0000018c __mdiff
0080260c g     F .text	00000060 __modsi3
00800690 g     F .text	00000028 decodePlaylist
01000000 g       *ABS*	00000000 __alt_data_end
00800020 g     F .exceptions	00000000 alt_exception
0080721c g     F .text	00000004 __sfp_lock_release
00800000 g       *ABS*	00000000 __alt_mem_sdram
0080dc90 g     F .text	00000078 alt_up_character_lcd_string
0080fcd4 g     F .text	00000020 _exit
008093c4 g     F .text	00000030 __isnand
0080bd74 g     F .text	00000154 alt_alarm_start
0080b748 g     F .text	00000098 __muldi3
00807fa0 g     F .text	00000194 __smakebuf_r
0080e340 g     F .text	00000070 alt_up_ps2_wait_for_ack
00803630 g     F .text	00000074 strlen
0080f47c g     F .text	00000188 open
0080b2d4 g     F .text	00000088 __gedf2
0080f074 g     F .text	00000030 alt_icache_flush_all
0080dd54 g     F .text	00000078 alt_up_character_lcd_set_cursor_pos
00812064 g     O .rwdata	00000004 alt_priority_mask
00805664 g     F .text	00000024 __vfprintf_internal
0080e5a0 g     F .text	0000009c alt_up_ps2_read_fd
0080aa2c g     F .text	00000080 __subdf3
00808428 g     F .text	000000c4 __lo0bits
00801ffc g     F .text	00000038 switchAck
0081205c g     O .rwdata	00000008 alt_alarm_list
0080ef18 g     F .text	00000064 _do_ctors
0080e7d0 g     F .text	0000003c alt_up_rs232_get_used_space_in_read_FIFO
0080bec8 g     F .text	000000fc close
0080c2a4 g     F .text	00000080 alt_load
0080b860 g     F .text	00000314 __pack_d
0080267c g     F .text	00000014 free
00807220 g     F .text	00000004 __sinit_lock_acquire
00809044 g     F .text	00000100 __multadd
00808390 g     F .text	00000028 _Bfree



Disassembly of section .entry:

00800000 <__reset>:
#if NIOS2_ICACHE_SIZE > 0 && defined(ALT_ALLOW_CODE_AT_RESET) && !defined(ALT_SIM_OPTIMIZE)
    /* Assume the instruction cache size is always a power of two. */
#if NIOS2_ICACHE_SIZE > 0x8000
    movhi r2, %hi(NIOS2_ICACHE_SIZE)
#else
    movui r2, NIOS2_ICACHE_SIZE
  800000:	00880014 	movui	r2,8192
#endif

0:
    initi r2
  800004:	1001483a 	initi	r2
    addi r2, r2, -NIOS2_ICACHE_LINE_SIZE
  800008:	10bff804 	addi	r2,r2,-32
    bgt r2, zero, 0b
  80000c:	00bffd16 	blt	zero,r2,800004 <__reset+0x4>
 * Jump to the _start entry point in the .text section if reset code
 * is allowed or if optimizing for RTL simulation.
 */
#if defined(ALT_ALLOW_CODE_AT_RESET) || defined(ALT_SIM_OPTIMIZE)
    /* Jump to the _start entry point in the .text section. */
    movhi r1, %hi(_start)
  800010:	00402034 	movhi	at,128
    ori r1, r1, %lo(_start)
  800014:	08406e14 	ori	at,at,440
    jmp r1
  800018:	0800683a 	jmp	at
  80001c:	00000000 	call	0 <__alt_mem_sdram-0x800000>

Disassembly of section .exceptions:

00800020 <alt_exception>:
         * Process an exception.  For all exceptions we must preserve all
         * caller saved registers on the stack (See the Nios2 ABI
         * documentation for details).
         */

        addi  sp, sp, -76
  800020:	deffed04 	addi	sp,sp,-76

#endif

#endif

        stw   ra,  0(sp)
  800024:	dfc00015 	stw	ra,0(sp)
        /*
         * Leave a gap in the stack frame at 4(sp) for the muldiv handler to
         * store zero into.
         */

        stw   r1,   8(sp)
  800028:	d8400215 	stw	at,8(sp)
        stw   r2,  12(sp)
  80002c:	d8800315 	stw	r2,12(sp)
        stw   r3,  16(sp)
  800030:	d8c00415 	stw	r3,16(sp)
        stw   r4,  20(sp)
  800034:	d9000515 	stw	r4,20(sp)
        stw   r5,  24(sp)
  800038:	d9400615 	stw	r5,24(sp)
        stw   r6,  28(sp)
  80003c:	d9800715 	stw	r6,28(sp)
        stw   r7,  32(sp)
  800040:	d9c00815 	stw	r7,32(sp)

        rdctl r5, estatus
  800044:	000b307a 	rdctl	r5,estatus

        stw   r8,  36(sp)
  800048:	da000915 	stw	r8,36(sp)
        stw   r9,  40(sp)
  80004c:	da400a15 	stw	r9,40(sp)
        stw   r10, 44(sp)
  800050:	da800b15 	stw	r10,44(sp)
        stw   r11, 48(sp)
  800054:	dac00c15 	stw	r11,48(sp)
        stw   r12, 52(sp)
  800058:	db000d15 	stw	r12,52(sp)
        stw   r13, 56(sp)
  80005c:	db400e15 	stw	r13,56(sp)
        stw   r14, 60(sp)
  800060:	db800f15 	stw	r14,60(sp)
        stw   r15, 64(sp)
  800064:	dbc01015 	stw	r15,64(sp)
        /*
         * ea-4 contains the address of the instruction being executed
         * when the exception occured. For interrupt exceptions, we will
         * will be re-issue the isntruction. Store it in 72(sp)
         */
        stw   r5,  68(sp)  /* estatus */
  800068:	d9401115 	stw	r5,68(sp)
        addi  r15, ea, -4  /* instruction that caused exception */
  80006c:	ebffff04 	addi	r15,ea,-4
        stw   r15,  72(sp)
  800070:	dbc01215 	stw	r15,72(sp)
#else
        /*
         * Test to see if the exception was a software exception or caused 
         * by an external interrupt, and vector accordingly.
         */
        rdctl r4, ipending
  800074:	0009313a 	rdctl	r4,ipending
        andi  r2, r5, 1
  800078:	2880004c 	andi	r2,r5,1
        beq   r2, zero, .Lnot_irq
  80007c:	10000326 	beq	r2,zero,80008c <alt_exception+0x6c>
        beq   r4, zero, .Lnot_irq
  800080:	20000226 	beq	r4,zero,80008c <alt_exception+0x6c>
        /*
         * Now that all necessary registers have been preserved, call 
         * alt_irq_handler() to process the interrupts.
         */

        call alt_irq_handler
  800084:	08000ec0 	call	8000ec <alt_irq_handler>

        .section .exceptions.irqreturn, "xa"

        br    .Lexception_exit
  800088:	00000306 	br	800098 <alt_exception+0x78>
         * upon completion, so we write ea (address of instruction *after*
         * the one where the exception occured) into 72(sp). The actual
         * instruction that caused the exception is written in r2, which these
         * handlers will utilize.
         */
        stw   ea,  72(sp)  /* Don't re-issue */
  80008c:	df401215 	stw	ea,72(sp)
        ldw   r2, -4(ea)   /* Instruction that caused exception */
  800090:	e8bfff17 	ldw	r2,-4(ea)
#ifdef NIOS2_HAS_DEBUG_STUB
       /*
        *  Either tell the user now (if there is a debugger attached) or go into
        *  the debug monitor which will loop until a debugger is attached.
        */
        break
  800094:	003da03a 	break	0
        /* 
         * Restore the saved registers, so that all general purpose registers 
         * have been restored to their state at the time the interrupt occured.
         */

        ldw   r5,  68(sp)
  800098:	d9401117 	ldw	r5,68(sp)
        ldw   ea,  72(sp)  /* This becomes the PC once eret is executed */
  80009c:	df401217 	ldw	ea,72(sp)
        ldw   ra,   0(sp)
  8000a0:	dfc00017 	ldw	ra,0(sp)

        wrctl estatus, r5
  8000a4:	2801707a 	wrctl	estatus,r5

        ldw   r1,   8(sp)
  8000a8:	d8400217 	ldw	at,8(sp)
        ldw   r2,  12(sp)
  8000ac:	d8800317 	ldw	r2,12(sp)
        ldw   r3,  16(sp)
  8000b0:	d8c00417 	ldw	r3,16(sp)
        ldw   r4,  20(sp)
  8000b4:	d9000517 	ldw	r4,20(sp)
        ldw   r5,  24(sp)
  8000b8:	d9400617 	ldw	r5,24(sp)
        ldw   r6,  28(sp)
  8000bc:	d9800717 	ldw	r6,28(sp)
        ldw   r7,  32(sp)
  8000c0:	d9c00817 	ldw	r7,32(sp)
#ifdef ALT_STACK_CHECK
        ldw   et, %gprel(alt_exception_old_stack_limit)(gp)
#endif
#endif

        ldw   r8,  36(sp)
  8000c4:	da000917 	ldw	r8,36(sp)
        ldw   r9,  40(sp)
  8000c8:	da400a17 	ldw	r9,40(sp)
        ldw   r10, 44(sp)
  8000cc:	da800b17 	ldw	r10,44(sp)
        ldw   r11, 48(sp)
  8000d0:	dac00c17 	ldw	r11,48(sp)
        ldw   r12, 52(sp)
  8000d4:	db000d17 	ldw	r12,52(sp)
        ldw   r13, 56(sp)
  8000d8:	db400e17 	ldw	r13,56(sp)
        ldw   r14, 60(sp)
  8000dc:	db800f17 	ldw	r14,60(sp)
        ldw   r15, 64(sp)
  8000e0:	dbc01017 	ldw	r15,64(sp)
#endif

        ldw   sp,  76(sp)

#else
        addi  sp, sp, 76
  8000e4:	dec01304 	addi	sp,sp,76

        /*
         * Return to the interrupted instruction.
         */

        eret
  8000e8:	ef80083a 	eret

008000ec <alt_irq_handler>:
 * instruction is present if the macro ALT_CI_INTERRUPT_VECTOR defined.
 */

void alt_irq_handler (void) __attribute__ ((section (".exceptions")));
void alt_irq_handler (void)
{
  8000ec:	defff904 	addi	sp,sp,-28
  8000f0:	dfc00615 	stw	ra,24(sp)
  8000f4:	df000515 	stw	fp,20(sp)
  8000f8:	df000504 	addi	fp,sp,20
#ifndef NIOS2_EIC_PRESENT
static ALT_INLINE alt_u32 ALT_ALWAYS_INLINE alt_irq_pending (void)
{
  alt_u32 active;

  NIOS2_READ_IPENDING (active);
  8000fc:	0005313a 	rdctl	r2,ipending
  800100:	e0bffc15 	stw	r2,-16(fp)

  return active;
  800104:	e0bffc17 	ldw	r2,-16(fp)
   * Consider the case where the high priority interupt is asserted during
   * the interrupt entry sequence for a lower priority interrupt to see why
   * this is the case.
   */

  active = alt_irq_pending ();
  800108:	e0bfff15 	stw	r2,-4(fp)

  do
  {
    i = 0;
  80010c:	e03ffd15 	stw	zero,-12(fp)
    mask = 1;
  800110:	00800044 	movi	r2,1
  800114:	e0bffe15 	stw	r2,-8(fp)
     * called to clear the interrupt condition.
     */

    do
    {
      if (active & mask)
  800118:	e0ffff17 	ldw	r3,-4(fp)
  80011c:	e0bffe17 	ldw	r2,-8(fp)
  800120:	1884703a 	and	r2,r3,r2
  800124:	1005003a 	cmpeq	r2,r2,zero
  800128:	1000171e 	bne	r2,zero,800188 <alt_irq_handler+0x9c>
      { 
#ifdef ALT_ENHANCED_INTERRUPT_API_PRESENT
        alt_irq[i].handler(alt_irq[i].context); 
#else
        alt_irq[i].handler(alt_irq[i].context, i); 
  80012c:	e0bffd17 	ldw	r2,-12(fp)
  800130:	00c02074 	movhi	r3,129
  800134:	18cf5c04 	addi	r3,r3,15728
  800138:	100490fa 	slli	r2,r2,3
  80013c:	10c5883a 	add	r2,r2,r3
  800140:	11800017 	ldw	r6,0(r2)
  800144:	e0bffd17 	ldw	r2,-12(fp)
  800148:	00c02074 	movhi	r3,129
  80014c:	18cf5c04 	addi	r3,r3,15728
  800150:	100490fa 	slli	r2,r2,3
  800154:	10c5883a 	add	r2,r2,r3
  800158:	10800104 	addi	r2,r2,4
  80015c:	11000017 	ldw	r4,0(r2)
  800160:	e17ffd17 	ldw	r5,-12(fp)
  800164:	303ee83a 	callr	r6
#ifndef NIOS2_EIC_PRESENT
static ALT_INLINE alt_u32 ALT_ALWAYS_INLINE alt_irq_pending (void)
{
  alt_u32 active;

  NIOS2_READ_IPENDING (active);
  800168:	0005313a 	rdctl	r2,ipending
  80016c:	e0bffb15 	stw	r2,-20(fp)

  return active;
  800170:	e0bffb17 	ldw	r2,-20(fp)
      mask <<= 1;
      i++;

    } while (1);

    active = alt_irq_pending ();
  800174:	e0bfff15 	stw	r2,-4(fp)
    
  } while (active);
  800178:	e0bfff17 	ldw	r2,-4(fp)
  80017c:	1004c03a 	cmpne	r2,r2,zero
  800180:	103fe21e 	bne	r2,zero,80010c <alt_irq_handler+0x20>
  800184:	00000706 	br	8001a4 <alt_irq_handler+0xb8>
#else
        alt_irq[i].handler(alt_irq[i].context, i); 
#endif
        break;
      }
      mask <<= 1;
  800188:	e0bffe17 	ldw	r2,-8(fp)
  80018c:	1085883a 	add	r2,r2,r2
  800190:	e0bffe15 	stw	r2,-8(fp)
      i++;
  800194:	e0bffd17 	ldw	r2,-12(fp)
  800198:	10800044 	addi	r2,r2,1
  80019c:	e0bffd15 	stw	r2,-12(fp)

    } while (1);
  8001a0:	003fdd06 	br	800118 <alt_irq_handler+0x2c>
  /*
   * Notify the operating system that interrupt processing is complete.
   */ 

  ALT_OS_INT_EXIT();
}
  8001a4:	e037883a 	mov	sp,fp
  8001a8:	dfc00117 	ldw	ra,4(sp)
  8001ac:	df000017 	ldw	fp,0(sp)
  8001b0:	dec00204 	addi	sp,sp,8
  8001b4:	f800283a 	ret

Disassembly of section .text:

008001b8 <_start>:

    /* Assume the data cache size is always a power of two. */
#if NIOS2_DCACHE_SIZE > 0x8000
    movhi r2, %hi(NIOS2_DCACHE_SIZE)
#else
    movui r2, NIOS2_DCACHE_SIZE
  8001b8:	00900014 	movui	r2,16384
#endif

0:
    initd 0(r2)
  8001bc:	10000033 	initd	0(r2)
    addi r2, r2, -NIOS2_DCACHE_LINE_SIZE
  8001c0:	10bff804 	addi	r2,r2,-32
    bgt r2, zero, 0b
  8001c4:	00bffd16 	blt	zero,r2,8001bc <_start+0x4>
#if (NIOS2_NUM_OF_SHADOW_REG_SETS == 0)    
    /*
     * Now that the caches are initialized, set up the stack pointer.
     * The value provided by the linker is assumed to be correctly aligned.
     */
    movhi sp, %hi(__alt_stack_pointer)
  8001c8:	06c04034 	movhi	sp,256
    ori sp, sp, %lo(__alt_stack_pointer)
  8001cc:	dec00014 	ori	sp,sp,0

    /* Set up the global pointer. */
    movhi gp, %hi(_gp)
  8001d0:	06802074 	movhi	gp,129
    ori gp, gp, %lo(_gp)
  8001d4:	d6a80a14 	ori	gp,gp,41000
 */
#ifndef ALT_SIM_OPTIMIZE
    /* Log that the BSS is about to be cleared. */
    ALT_LOG_PUTS(alt_log_msg_bss)

    movhi r2, %hi(__bss_start)
  8001d8:	00802074 	movhi	r2,129
    ori r2, r2, %lo(__bss_start)
  8001dc:	108f1f14 	ori	r2,r2,15484

    movhi r3, %hi(__bss_end)
  8001e0:	00c02074 	movhi	r3,129
    ori r3, r3, %lo(__bss_end)
  8001e4:	18d00014 	ori	r3,r3,16384

    beq r2, r3, 1f
  8001e8:	10c00326 	beq	r2,r3,8001f8 <_start+0x40>

0:
    stw zero, (r2)
  8001ec:	10000015 	stw	zero,0(r2)
    addi r2, r2, 4
  8001f0:	10800104 	addi	r2,r2,4
    bltu r2, r3, 0b
  8001f4:	10fffd36 	bltu	r2,r3,8001ec <_start+0x34>
     * section aren't defined until alt_load() has been called).
     */
    mov   et, zero
#endif

    call alt_load
  8001f8:	080c2a40 	call	80c2a4 <alt_load>

    /* Log that alt_main is about to be called. */
    ALT_LOG_PUTS(alt_log_msg_alt_main)

    /* Call the C entry point. It should never return. */
    call alt_main
  8001fc:	080c4e00 	call	80c4e0 <alt_main>

00800200 <alt_after_alt_main>:

    /* Wait in infinite loop in case alt_main does return. */
alt_after_alt_main:
    br alt_after_alt_main
  800200:	003fff06 	br	800200 <alt_after_alt_main>

00800204 <encodeString>:

/*
 * encode the string into multiply packets and put into queue
 *
 */
void encodeString(char* str, struct Queue* q) {
  800204:	defff504 	addi	sp,sp,-44
  800208:	dfc00a15 	stw	ra,40(sp)
  80020c:	df000915 	stw	fp,36(sp)
  800210:	df000904 	addi	fp,sp,36
  800214:	e13ffe15 	stw	r4,-8(fp)
  800218:	e17fff15 	stw	r5,-4(fp)
	if(str == NULL || q == NULL) return;
  80021c:	e0bffe17 	ldw	r2,-8(fp)
  800220:	1005003a 	cmpeq	r2,r2,zero
  800224:	1000631e 	bne	r2,zero,8003b4 <encodeString+0x1b0>
  800228:	e0bfff17 	ldw	r2,-4(fp)
  80022c:	1004c03a 	cmpne	r2,r2,zero
  800230:	1000011e 	bne	r2,zero,800238 <encodeString+0x34>
  800234:	00005f06 	br	8003b4 <encodeString+0x1b0>
	int i;
	int length = strlen(str);
  800238:	e13ffe17 	ldw	r4,-8(fp)
  80023c:	08036300 	call	803630 <strlen>
  800240:	e0bffb15 	stw	r2,-20(fp)
	char* strBuf = (char*)malloc(sizeof(char)*length);
  800244:	e13ffb17 	ldw	r4,-20(fp)
  800248:	08026900 	call	802690 <malloc>
  80024c:	e0bffd15 	stw	r2,-12(fp)
	strncpy(strBuf, str, length);
  800250:	e13ffd17 	ldw	r4,-12(fp)
  800254:	e1bffb17 	ldw	r6,-20(fp)
  800258:	e17ffe17 	ldw	r5,-8(fp)
  80025c:	08036a40 	call	8036a4 <strncpy>
	int packet_size = length / 100;
  800260:	e13ffb17 	ldw	r4,-20(fp)
  800264:	01401904 	movi	r5,100
  800268:	08025ac0 	call	8025ac <__divsi3>
  80026c:	e0bffa15 	stw	r2,-24(fp)
	if(length % 100 >0) {
  800270:	e13ffb17 	ldw	r4,-20(fp)
  800274:	01401904 	movi	r5,100
  800278:	080260c0 	call	80260c <__modsi3>
  80027c:	10800050 	cmplti	r2,r2,1
  800280:	1000031e 	bne	r2,zero,800290 <encodeString+0x8c>
		packet_size+=1;
  800284:	e0bffa17 	ldw	r2,-24(fp)
  800288:	10800044 	addi	r2,r2,1
  80028c:	e0bffa15 	stw	r2,-24(fp)
	}
	int* num_packets = (int*)malloc(sizeof(int));
  800290:	01000104 	movi	r4,4
  800294:	08026900 	call	802690 <malloc>
  800298:	e0bff915 	stw	r2,-28(fp)
	*num_packets = packet_size;
  80029c:	e0fff917 	ldw	r3,-28(fp)
  8002a0:	e0bffa17 	ldw	r2,-24(fp)
  8002a4:	18800015 	stw	r2,0(r3)
	enqueue(com.pendingPacketSize, (void*)num_packets);
  8002a8:	00802074 	movhi	r2,129
  8002ac:	108f3b04 	addi	r2,r2,15596
  8002b0:	11000f17 	ldw	r4,60(r2)
  8002b4:	e17ff917 	ldw	r5,-28(fp)
  8002b8:	08017580 	call	801758 <enqueue>
	struct Packet* result;
	for(i = 0; i < packet_size; i++) {
  8002bc:	e03ffc15 	stw	zero,-16(fp)
  8002c0:	00003506 	br	800398 <encodeString+0x194>
		if(i == packet_size - 1) {
  8002c4:	e0bffa17 	ldw	r2,-24(fp)
  8002c8:	10ffffc4 	addi	r3,r2,-1
  8002cc:	e0bffc17 	ldw	r2,-16(fp)
  8002d0:	18800b1e 	bne	r3,r2,800300 <encodeString+0xfc>
			result = initPacket(length, (unsigned char*)strBuf);
  8002d4:	e0bffd17 	ldw	r2,-12(fp)
  8002d8:	100b883a 	mov	r5,r2
  8002dc:	e13ffb17 	ldw	r4,-20(fp)
  8002e0:	080103c0 	call	80103c <initPacket>
  8002e4:	e0bff815 	stw	r2,-32(fp)
			setHeader(result, 0, 1, STRING); //last packet
  8002e8:	e13ff817 	ldw	r4,-32(fp)
  8002ec:	000b883a 	mov	r5,zero
  8002f0:	01800044 	movi	r6,1
  8002f4:	000f883a 	mov	r7,zero
  8002f8:	08011b40 	call	8011b4 <setHeader>
  8002fc:	00000e06 	br	800338 <encodeString+0x134>
		}
		else {
			char* temp = strnsep_(&strBuf, 100);
  800300:	e13ffd04 	addi	r4,fp,-12
  800304:	01401904 	movi	r5,100
  800308:	08015980 	call	801598 <strnsep_>
  80030c:	e0bff715 	stw	r2,-36(fp)
			result = initPacket(100, (unsigned char*)temp);
  800310:	e17ff717 	ldw	r5,-36(fp)
  800314:	01001904 	movi	r4,100
  800318:	080103c0 	call	80103c <initPacket>
  80031c:	e0bff815 	stw	r2,-32(fp)
			free(temp);
  800320:	e13ff717 	ldw	r4,-36(fp)
  800324:	080267c0 	call	80267c <free>
			temp = NULL;
  800328:	e03ff715 	stw	zero,-36(fp)
			length -= 100;
  80032c:	e0bffb17 	ldw	r2,-20(fp)
  800330:	10bfe704 	addi	r2,r2,-100
  800334:	e0bffb15 	stw	r2,-20(fp)
		}
		if(i == 0)
  800338:	e0bffc17 	ldw	r2,-16(fp)
  80033c:	1004c03a 	cmpne	r2,r2,zero
  800340:	1000061e 	bne	r2,zero,80035c <encodeString+0x158>
			setHeader(result, 1, 0, STRING); //first packet
  800344:	e13ff817 	ldw	r4,-32(fp)
  800348:	01400044 	movi	r5,1
  80034c:	000d883a 	mov	r6,zero
  800350:	000f883a 	mov	r7,zero
  800354:	08011b40 	call	8011b4 <setHeader>
  800358:	00000906 	br	800380 <encodeString+0x17c>
		else if(i != packet_size - 1)
  80035c:	e0bffa17 	ldw	r2,-24(fp)
  800360:	10ffffc4 	addi	r3,r2,-1
  800364:	e0bffc17 	ldw	r2,-16(fp)
  800368:	18800526 	beq	r3,r2,800380 <encodeString+0x17c>
			setHeader(result, 0, 0, STRING);
  80036c:	e13ff817 	ldw	r4,-32(fp)
  800370:	000b883a 	mov	r5,zero
  800374:	000d883a 	mov	r6,zero
  800378:	000f883a 	mov	r7,zero
  80037c:	08011b40 	call	8011b4 <setHeader>
		enqueue(q, (void*)result);
  800380:	e13fff17 	ldw	r4,-4(fp)
  800384:	e17ff817 	ldw	r5,-32(fp)
  800388:	08017580 	call	801758 <enqueue>
	}
	int* num_packets = (int*)malloc(sizeof(int));
	*num_packets = packet_size;
	enqueue(com.pendingPacketSize, (void*)num_packets);
	struct Packet* result;
	for(i = 0; i < packet_size; i++) {
  80038c:	e0bffc17 	ldw	r2,-16(fp)
  800390:	10800044 	addi	r2,r2,1
  800394:	e0bffc15 	stw	r2,-16(fp)
  800398:	e0fffc17 	ldw	r3,-16(fp)
  80039c:	e0bffa17 	ldw	r2,-24(fp)
  8003a0:	18bfc816 	blt	r3,r2,8002c4 <encodeString+0xc0>
			setHeader(result, 1, 0, STRING); //first packet
		else if(i != packet_size - 1)
			setHeader(result, 0, 0, STRING);
		enqueue(q, (void*)result);
	}
	result = NULL;
  8003a4:	e03ff815 	stw	zero,-32(fp)
	free(strBuf);
  8003a8:	e13ffd17 	ldw	r4,-12(fp)
  8003ac:	080267c0 	call	80267c <free>
	strBuf = NULL;
  8003b0:	e03ffd15 	stw	zero,-12(fp)
}
  8003b4:	e037883a 	mov	sp,fp
  8003b8:	dfc00117 	ldw	ra,4(sp)
  8003bc:	df000017 	ldw	fp,0(sp)
  8003c0:	dec00204 	addi	sp,sp,8
  8003c4:	f800283a 	ret

008003c8 <decode>:

void* decode(struct Queue* this) {
  8003c8:	defff704 	addi	sp,sp,-36
  8003cc:	dfc00815 	stw	ra,32(sp)
  8003d0:	df000715 	stw	fp,28(sp)
  8003d4:	dc000615 	stw	r16,24(sp)
  8003d8:	df000604 	addi	fp,sp,24
  8003dc:	e13ffe15 	stw	r4,-8(fp)
	int len = this->size;
  8003e0:	e0bffe17 	ldw	r2,-8(fp)
  8003e4:	10800017 	ldw	r2,0(r2)
  8003e8:	e0bffd15 	stw	r2,-12(fp)
	struct Packet** packets = (struct Packet**)malloc(sizeof(struct Packet*)*len);
  8003ec:	e0bffd17 	ldw	r2,-12(fp)
  8003f0:	1085883a 	add	r2,r2,r2
  8003f4:	1085883a 	add	r2,r2,r2
  8003f8:	1009883a 	mov	r4,r2
  8003fc:	08026900 	call	802690 <malloc>
  800400:	e0bffc15 	stw	r2,-16(fp)
	void* result = NULL;
  800404:	e03ffb15 	stw	zero,-20(fp)
	int i = 0;
  800408:	e03ffa15 	stw	zero,-24(fp)
	for(i = 0; i < len; i++) {
  80040c:	e03ffa15 	stw	zero,-24(fp)
  800410:	00000c06 	br	800444 <decode+0x7c>
		packets[i] = (struct Packet*)dequeue(this);
  800414:	e0bffa17 	ldw	r2,-24(fp)
  800418:	1085883a 	add	r2,r2,r2
  80041c:	1085883a 	add	r2,r2,r2
  800420:	1007883a 	mov	r3,r2
  800424:	e0bffc17 	ldw	r2,-16(fp)
  800428:	18a1883a 	add	r16,r3,r2
  80042c:	e13ffe17 	ldw	r4,-8(fp)
  800430:	08018a40 	call	8018a4 <dequeue>
  800434:	80800015 	stw	r2,0(r16)
void* decode(struct Queue* this) {
	int len = this->size;
	struct Packet** packets = (struct Packet**)malloc(sizeof(struct Packet*)*len);
	void* result = NULL;
	int i = 0;
	for(i = 0; i < len; i++) {
  800438:	e0bffa17 	ldw	r2,-24(fp)
  80043c:	10800044 	addi	r2,r2,1
  800440:	e0bffa15 	stw	r2,-24(fp)
  800444:	e0fffa17 	ldw	r3,-24(fp)
  800448:	e0bffd17 	ldw	r2,-12(fp)
  80044c:	18bff116 	blt	r3,r2,800414 <decode+0x4c>
		packets[i] = (struct Packet*)dequeue(this);
	}

	switch(*(packets[0]->type)) {
  800450:	e0bffc17 	ldw	r2,-16(fp)
  800454:	10800017 	ldw	r2,0(r2)
  800458:	10800217 	ldw	r2,8(r2)
  80045c:	10800017 	ldw	r2,0(r2)
  800460:	e0bfff15 	stw	r2,-4(fp)
  800464:	e0ffff17 	ldw	r3,-4(fp)
  800468:	18800060 	cmpeqi	r2,r3,1
  80046c:	10000c1e 	bne	r2,zero,8004a0 <decode+0xd8>
  800470:	e0ffff17 	ldw	r3,-4(fp)
  800474:	18800070 	cmpltui	r2,r3,1
  800478:	1000041e 	bne	r2,zero,80048c <decode+0xc4>
  80047c:	e0ffff17 	ldw	r3,-4(fp)
  800480:	188000a0 	cmpeqi	r2,r3,2
  800484:	10000b1e 	bne	r2,zero,8004b4 <decode+0xec>
  800488:	00000e06 	br	8004c4 <decode+0xfc>
	case STRING:
		result = decodeString(packets, len);
  80048c:	e13ffc17 	ldw	r4,-16(fp)
  800490:	e17ffd17 	ldw	r5,-12(fp)
  800494:	08005280 	call	800528 <decodeString>
  800498:	e0bffb15 	stw	r2,-20(fp)
		break;
  80049c:	00000906 	br	8004c4 <decode+0xfc>
	case CMD:
		result = decodeCmd(packets, len);
  8004a0:	e13ffc17 	ldw	r4,-16(fp)
  8004a4:	e17ffd17 	ldw	r5,-12(fp)
  8004a8:	08006680 	call	800668 <decodeCmd>
  8004ac:	e0bffb15 	stw	r2,-20(fp)
		break;
  8004b0:	00000406 	br	8004c4 <decode+0xfc>
	case PLAYLIST:
		result = decodePlaylist(packets, len);
  8004b4:	e13ffc17 	ldw	r4,-16(fp)
  8004b8:	e17ffd17 	ldw	r5,-12(fp)
  8004bc:	08006900 	call	800690 <decodePlaylist>
  8004c0:	e0bffb15 	stw	r2,-20(fp)
		break;
	default:
		break;
	}
	for(i = 0; i < len ; i++ ) {
  8004c4:	e03ffa15 	stw	zero,-24(fp)
  8004c8:	00000a06 	br	8004f4 <decode+0x12c>
		killPacket(&packets[i]);
  8004cc:	e0bffa17 	ldw	r2,-24(fp)
  8004d0:	1085883a 	add	r2,r2,r2
  8004d4:	1085883a 	add	r2,r2,r2
  8004d8:	1007883a 	mov	r3,r2
  8004dc:	e0bffc17 	ldw	r2,-16(fp)
  8004e0:	1889883a 	add	r4,r3,r2
  8004e4:	08011240 	call	801124 <killPacket>
		result = decodePlaylist(packets, len);
		break;
	default:
		break;
	}
	for(i = 0; i < len ; i++ ) {
  8004e8:	e0bffa17 	ldw	r2,-24(fp)
  8004ec:	10800044 	addi	r2,r2,1
  8004f0:	e0bffa15 	stw	r2,-24(fp)
  8004f4:	e0fffa17 	ldw	r3,-24(fp)
  8004f8:	e0bffd17 	ldw	r2,-12(fp)
  8004fc:	18bff316 	blt	r3,r2,8004cc <decode+0x104>
		killPacket(&packets[i]);
	}
	free(packets);
  800500:	e13ffc17 	ldw	r4,-16(fp)
  800504:	080267c0 	call	80267c <free>
	packets = NULL;
  800508:	e03ffc15 	stw	zero,-16(fp)
	return result;
  80050c:	e0bffb17 	ldw	r2,-20(fp)
}
  800510:	e037883a 	mov	sp,fp
  800514:	dfc00217 	ldw	ra,8(sp)
  800518:	df000117 	ldw	fp,4(sp)
  80051c:	dc000017 	ldw	r16,0(sp)
  800520:	dec00304 	addi	sp,sp,12
  800524:	f800283a 	ret

00800528 <decodeString>:

void* decodeString(struct Packet** p, int size) {
  800528:	defff704 	addi	sp,sp,-36
  80052c:	dfc00815 	stw	ra,32(sp)
  800530:	df000715 	stw	fp,28(sp)
  800534:	df000704 	addi	fp,sp,28
  800538:	e13ffe15 	stw	r4,-8(fp)
  80053c:	e17fff15 	stw	r5,-4(fp)
	int i = 0, j = 0, k = 0;
  800540:	e03ffd15 	stw	zero,-12(fp)
  800544:	e03ffc15 	stw	zero,-16(fp)
  800548:	e03ffb15 	stw	zero,-20(fp)
	int char_len = (size-1)*100+p[size-1]->data_size;
  80054c:	e0bfff17 	ldw	r2,-4(fp)
  800550:	11001924 	muli	r4,r2,100
  800554:	e0bfff17 	ldw	r2,-4(fp)
  800558:	1085883a 	add	r2,r2,r2
  80055c:	1085883a 	add	r2,r2,r2
  800560:	1007883a 	mov	r3,r2
  800564:	e0bffe17 	ldw	r2,-8(fp)
  800568:	1885883a 	add	r2,r3,r2
  80056c:	10bfff04 	addi	r2,r2,-4
  800570:	10800017 	ldw	r2,0(r2)
  800574:	10800117 	ldw	r2,4(r2)
  800578:	2085883a 	add	r2,r4,r2
  80057c:	10bfe704 	addi	r2,r2,-100
  800580:	e0bffa15 	stw	r2,-24(fp)
	char* result = (char*)malloc(sizeof(char)*char_len);
  800584:	e13ffa17 	ldw	r4,-24(fp)
  800588:	08026900 	call	802690 <malloc>
  80058c:	e0bff915 	stw	r2,-28(fp)
	for(i = 0; i < size; i++) {
  800590:	e03ffd15 	stw	zero,-12(fp)
  800594:	00002606 	br	800630 <decodeString+0x108>
		for(j = 0; j < p[i]->data_size; j++) {
  800598:	e03ffc15 	stw	zero,-16(fp)
  80059c:	00001706 	br	8005fc <decodeString+0xd4>
			result[k] = p[i]->data[j+HEADERSIZE];
  8005a0:	e0bffb17 	ldw	r2,-20(fp)
  8005a4:	1007883a 	mov	r3,r2
  8005a8:	e0bff917 	ldw	r2,-28(fp)
  8005ac:	1889883a 	add	r4,r3,r2
  8005b0:	e0bffd17 	ldw	r2,-12(fp)
  8005b4:	1085883a 	add	r2,r2,r2
  8005b8:	1085883a 	add	r2,r2,r2
  8005bc:	1007883a 	mov	r3,r2
  8005c0:	e0bffe17 	ldw	r2,-8(fp)
  8005c4:	1885883a 	add	r2,r3,r2
  8005c8:	10800017 	ldw	r2,0(r2)
  8005cc:	10c00017 	ldw	r3,0(r2)
  8005d0:	e0bffc17 	ldw	r2,-16(fp)
  8005d4:	1885883a 	add	r2,r3,r2
  8005d8:	10800084 	addi	r2,r2,2
  8005dc:	10800003 	ldbu	r2,0(r2)
  8005e0:	20800005 	stb	r2,0(r4)
			k++;
  8005e4:	e0bffb17 	ldw	r2,-20(fp)
  8005e8:	10800044 	addi	r2,r2,1
  8005ec:	e0bffb15 	stw	r2,-20(fp)
void* decodeString(struct Packet** p, int size) {
	int i = 0, j = 0, k = 0;
	int char_len = (size-1)*100+p[size-1]->data_size;
	char* result = (char*)malloc(sizeof(char)*char_len);
	for(i = 0; i < size; i++) {
		for(j = 0; j < p[i]->data_size; j++) {
  8005f0:	e0bffc17 	ldw	r2,-16(fp)
  8005f4:	10800044 	addi	r2,r2,1
  8005f8:	e0bffc15 	stw	r2,-16(fp)
  8005fc:	e0bffd17 	ldw	r2,-12(fp)
  800600:	1085883a 	add	r2,r2,r2
  800604:	1085883a 	add	r2,r2,r2
  800608:	1007883a 	mov	r3,r2
  80060c:	e0bffe17 	ldw	r2,-8(fp)
  800610:	1885883a 	add	r2,r3,r2
  800614:	10800017 	ldw	r2,0(r2)
  800618:	10c00117 	ldw	r3,4(r2)
  80061c:	e0bffc17 	ldw	r2,-16(fp)
  800620:	10ffdf16 	blt	r2,r3,8005a0 <decodeString+0x78>

void* decodeString(struct Packet** p, int size) {
	int i = 0, j = 0, k = 0;
	int char_len = (size-1)*100+p[size-1]->data_size;
	char* result = (char*)malloc(sizeof(char)*char_len);
	for(i = 0; i < size; i++) {
  800624:	e0bffd17 	ldw	r2,-12(fp)
  800628:	10800044 	addi	r2,r2,1
  80062c:	e0bffd15 	stw	r2,-12(fp)
  800630:	e0fffd17 	ldw	r3,-12(fp)
  800634:	e0bfff17 	ldw	r2,-4(fp)
  800638:	18bfd716 	blt	r3,r2,800598 <decodeString+0x70>
		for(j = 0; j < p[i]->data_size; j++) {
			result[k] = p[i]->data[j+HEADERSIZE];
			k++;
		}
	} result[k] = '\0';
  80063c:	e0bffb17 	ldw	r2,-20(fp)
  800640:	1007883a 	mov	r3,r2
  800644:	e0bff917 	ldw	r2,-28(fp)
  800648:	1885883a 	add	r2,r3,r2
  80064c:	10000005 	stb	zero,0(r2)
	return (void*)result;
  800650:	e0bff917 	ldw	r2,-28(fp)
}
  800654:	e037883a 	mov	sp,fp
  800658:	dfc00117 	ldw	ra,4(sp)
  80065c:	df000017 	ldw	fp,0(sp)
  800660:	dec00204 	addi	sp,sp,8
  800664:	f800283a 	ret

00800668 <decodeCmd>:
void* decodeCmd(struct Packet** p, int size) {
  800668:	defffd04 	addi	sp,sp,-12
  80066c:	df000215 	stw	fp,8(sp)
  800670:	df000204 	addi	fp,sp,8
  800674:	e13ffe15 	stw	r4,-8(fp)
  800678:	e17fff15 	stw	r5,-4(fp)

	return NULL;
  80067c:	0005883a 	mov	r2,zero
}
  800680:	e037883a 	mov	sp,fp
  800684:	df000017 	ldw	fp,0(sp)
  800688:	dec00104 	addi	sp,sp,4
  80068c:	f800283a 	ret

00800690 <decodePlaylist>:
void* decodePlaylist(struct Packet** p, int size) {
  800690:	defffd04 	addi	sp,sp,-12
  800694:	df000215 	stw	fp,8(sp)
  800698:	df000204 	addi	fp,sp,8
  80069c:	e13ffe15 	stw	r4,-8(fp)
  8006a0:	e17fff15 	stw	r5,-4(fp)

	return NULL;
  8006a4:	0005883a 	mov	r2,zero
}
  8006a8:	e037883a 	mov	sp,fp
  8006ac:	df000017 	ldw	fp,0(sp)
  8006b0:	dec00104 	addi	sp,sp,4
  8006b4:	f800283a 	ret

008006b8 <RS232_ISR>:

#include "ISR_vectors.h"

struct RS232 com;

alt_u32 RS232_ISR(void* up_dev) {
  8006b8:	defff604 	addi	sp,sp,-40
  8006bc:	dfc00915 	stw	ra,36(sp)
  8006c0:	df000815 	stw	fp,32(sp)
  8006c4:	df000804 	addi	fp,sp,32
  8006c8:	e13ffd15 	stw	r4,-12(fp)
	if(queue_lock == 1) return alt_ticks_per_second()/1000;
  8006cc:	00802074 	movhi	r2,129
  8006d0:	108f1f04 	addi	r2,r2,15484
  8006d4:	10800017 	ldw	r2,0(r2)
  8006d8:	10800058 	cmpnei	r2,r2,1
  8006dc:	1000081e 	bne	r2,zero,800700 <RS232_ISR+0x48>
 * Obtain the system clock rate in ticks/s. 
 */

static ALT_INLINE alt_u32 ALT_ALWAYS_INLINE alt_ticks_per_second (void)
{
  return _alt_tick_rate;
  8006e0:	00802074 	movhi	r2,129
  8006e4:	108f2c04 	addi	r2,r2,15536
  8006e8:	10800017 	ldw	r2,0(r2)
  8006ec:	1009883a 	mov	r4,r2
  8006f0:	0140fa04 	movi	r5,1000
  8006f4:	080266c0 	call	80266c <__udivsi3>
  8006f8:	e0bfff15 	stw	r2,-4(fp)
  8006fc:	00024906 	br	801024 <RS232_ISR+0x96c>
	alt_up_rs232_dev *serial_dev = ((struct alt_up_dev*)up_dev)->RS232_dev;
  800700:	e0bffd17 	ldw	r2,-12(fp)
  800704:	10800017 	ldw	r2,0(r2)
  800708:	e0bffc15 	stw	r2,-16(fp)
	unsigned char* cert;
	int i = 0;
  80070c:	e03ffa15 	stw	zero,-24(fp)
	int len = 0;
  800710:	e03ff915 	stw	zero,-28(fp)
	switch(*(com.stateMachine)) {
  800714:	00802074 	movhi	r2,129
  800718:	108f3b04 	addi	r2,r2,15596
  80071c:	10801117 	ldw	r2,68(r2)
  800720:	10800017 	ldw	r2,0(r2)
  800724:	e0bffe15 	stw	r2,-8(fp)
  800728:	e0fffe17 	ldw	r3,-8(fp)
  80072c:	188002e8 	cmpgeui	r2,r3,11
  800730:	1002351e 	bne	r2,zero,801008 <RS232_ISR+0x950>
  800734:	e13ffe17 	ldw	r4,-8(fp)
  800738:	e13ffe17 	ldw	r4,-8(fp)
  80073c:	2105883a 	add	r2,r4,r4
  800740:	1087883a 	add	r3,r2,r2
  800744:	00802034 	movhi	r2,128
  800748:	1081d604 	addi	r2,r2,1880
  80074c:	1885883a 	add	r2,r3,r2
  800750:	10800017 	ldw	r2,0(r2)
  800754:	1000683a 	jmp	r2
  800758:	008008cc 	andi	r2,zero,35
  80075c:	00800a34 	movhi	r2,40
  800760:	00800c54 	movui	r2,49
  800764:	00800d74 	movhi	r2,53
  800768:	00800e98 	cmpnei	r2,zero,58
  80076c:	00801008 	cmpgei	r2,zero,64
  800770:	00801008 	cmpgei	r2,zero,64
  800774:	00800a84 	movi	r2,42
  800778:	00800af8 	rdprs	r2,zero,43
  80077c:	00800784 	movi	r2,30
  800780:	008007d4 	movui	r2,31
	case startInit:
		cert = sendStartInit();
  800784:	0801c100 	call	801c10 <sendStartInit>
  800788:	e0bffb15 	stw	r2,-20(fp)
		sendRS232(serial_dev, cert, 3);
  80078c:	e13ffc17 	ldw	r4,-16(fp)
  800790:	e17ffb17 	ldw	r5,-20(fp)
  800794:	018000c4 	movi	r6,3
  800798:	08023a40 	call	8023a4 <sendRS232>
		free(cert);
  80079c:	e13ffb17 	ldw	r4,-20(fp)
  8007a0:	080267c0 	call	80267c <free>
		cert = NULL;
  8007a4:	e03ffb15 	stw	zero,-20(fp)
		com.failReceive = 0;
  8007a8:	00802074 	movhi	r2,129
  8007ac:	108f3b04 	addi	r2,r2,15596
  8007b0:	10001615 	stw	zero,88(r2)
  8007b4:	00802074 	movhi	r2,129
  8007b8:	108f2c04 	addi	r2,r2,15536
  8007bc:	10800017 	ldw	r2,0(r2)
  8007c0:	1009883a 	mov	r4,r2
		return alt_ticks_per_second()/20;
  8007c4:	01400504 	movi	r5,20
  8007c8:	080266c0 	call	80266c <__udivsi3>
  8007cc:	e0bfff15 	stw	r2,-4(fp)
  8007d0:	00021406 	br	801024 <RS232_ISR+0x96c>
	case waitStart:
		i = 0;
  8007d4:	e03ffa15 	stw	zero,-24(fp)
		if((len = alt_up_rs232_get_used_space_in_read_FIFO(serial_dev)) >= 3) {
  8007d8:	e13ffc17 	ldw	r4,-16(fp)
  8007dc:	080e7d00 	call	80e7d0 <alt_up_rs232_get_used_space_in_read_FIFO>
  8007e0:	e0bff915 	stw	r2,-28(fp)
  8007e4:	e0bff917 	ldw	r2,-28(fp)
  8007e8:	108000d0 	cmplti	r2,r2,3
  8007ec:	1000211e 	bne	r2,zero,800874 <RS232_ISR+0x1bc>
  8007f0:	00000006 	br	8007f4 <RS232_ISR+0x13c>
			do {
				while (alt_up_rs232_get_used_space_in_read_FIFO(serial_dev) == 0);
  8007f4:	e13ffc17 	ldw	r4,-16(fp)
  8007f8:	080e7d00 	call	80e7d0 <alt_up_rs232_get_used_space_in_read_FIFO>
  8007fc:	1005003a 	cmpeq	r2,r2,zero
  800800:	103ffc1e 	bne	r2,zero,8007f4 <RS232_ISR+0x13c>
				alt_up_rs232_read_data(serial_dev, &com.data[i], &com.parity);
  800804:	e0bffa17 	ldw	r2,-24(fp)
  800808:	1007883a 	mov	r3,r2
  80080c:	00802074 	movhi	r2,129
  800810:	108f3b04 	addi	r2,r2,15596
  800814:	188b883a 	add	r5,r3,r2
  800818:	e13ffc17 	ldw	r4,-16(fp)
  80081c:	01802074 	movhi	r6,129
  800820:	318f4784 	addi	r6,r6,15646
  800824:	080e8e40 	call	80e8e4 <alt_up_rs232_read_data>
				i++;
  800828:	e0bffa17 	ldw	r2,-24(fp)
  80082c:	10800044 	addi	r2,r2,1
  800830:	e0bffa15 	stw	r2,-24(fp)
			} while(i < 3);
  800834:	e0bffa17 	ldw	r2,-24(fp)
  800838:	108000d0 	cmplti	r2,r2,3
  80083c:	103fed1e 	bne	r2,zero,8007f4 <RS232_ISR+0x13c>
			if(checkStartAck(com.data[0]) == 1) {
  800840:	00802074 	movhi	r2,129
  800844:	108f3b04 	addi	r2,r2,15596
  800848:	10800003 	ldbu	r2,0(r2)
  80084c:	11003fcc 	andi	r4,r2,255
  800850:	0801c800 	call	801c80 <checkStartAck>
  800854:	10800058 	cmpnei	r2,r2,1
  800858:	1000031e 	bne	r2,zero,800868 <RS232_ISR+0x1b0>
				setStates(sendStates);
  80085c:	01000044 	movi	r4,1
  800860:	08021840 	call	802184 <setStates>
  800864:	00001106 	br	8008ac <RS232_ISR+0x1f4>
			} else
				setStates(startInit);
  800868:	01000244 	movi	r4,9
  80086c:	08021840 	call	802184 <setStates>
  800870:	00000e06 	br	8008ac <RS232_ISR+0x1f4>
		} else {
			com.failReceive++;
  800874:	00802074 	movhi	r2,129
  800878:	108f3b04 	addi	r2,r2,15596
  80087c:	10801617 	ldw	r2,88(r2)
  800880:	10c00044 	addi	r3,r2,1
  800884:	00802074 	movhi	r2,129
  800888:	108f3b04 	addi	r2,r2,15596
  80088c:	10c01615 	stw	r3,88(r2)
			if(com.failReceive > 10)
  800890:	00802074 	movhi	r2,129
  800894:	108f3b04 	addi	r2,r2,15596
  800898:	10801617 	ldw	r2,88(r2)
  80089c:	108002d0 	cmplti	r2,r2,11
  8008a0:	1000021e 	bne	r2,zero,8008ac <RS232_ISR+0x1f4>
				setStates(startInit);
  8008a4:	01000244 	movi	r4,9
  8008a8:	08021840 	call	802184 <setStates>
  8008ac:	00802074 	movhi	r2,129
  8008b0:	108f2c04 	addi	r2,r2,15536
  8008b4:	10800017 	ldw	r2,0(r2)
  8008b8:	1009883a 	mov	r4,r2
		}
		return alt_ticks_per_second()/20;
  8008bc:	01400504 	movi	r5,20
  8008c0:	080266c0 	call	80266c <__udivsi3>
  8008c4:	e0bfff15 	stw	r2,-4(fp)
  8008c8:	0001d606 	br	801024 <RS232_ISR+0x96c>
	case checkClient:
		i = 0;
  8008cc:	e03ffa15 	stw	zero,-24(fp)
		if((len = alt_up_rs232_get_used_space_in_read_FIFO(serial_dev)) >= 3) {
  8008d0:	e13ffc17 	ldw	r4,-16(fp)
  8008d4:	080e7d00 	call	80e7d0 <alt_up_rs232_get_used_space_in_read_FIFO>
  8008d8:	e0bff915 	stw	r2,-28(fp)
  8008dc:	e0bff917 	ldw	r2,-28(fp)
  8008e0:	108000d0 	cmplti	r2,r2,3
  8008e4:	10003d1e 	bne	r2,zero,8009dc <RS232_ISR+0x324>
  8008e8:	00000006 	br	8008ec <RS232_ISR+0x234>
			do {
				while (alt_up_rs232_get_used_space_in_read_FIFO(serial_dev) == 0);
  8008ec:	e13ffc17 	ldw	r4,-16(fp)
  8008f0:	080e7d00 	call	80e7d0 <alt_up_rs232_get_used_space_in_read_FIFO>
  8008f4:	1005003a 	cmpeq	r2,r2,zero
  8008f8:	103ffc1e 	bne	r2,zero,8008ec <RS232_ISR+0x234>
				alt_up_rs232_read_data(serial_dev, &com.data[i], &com.parity);
  8008fc:	e0bffa17 	ldw	r2,-24(fp)
  800900:	1007883a 	mov	r3,r2
  800904:	00802074 	movhi	r2,129
  800908:	108f3b04 	addi	r2,r2,15596
  80090c:	188b883a 	add	r5,r3,r2
  800910:	e13ffc17 	ldw	r4,-16(fp)
  800914:	01802074 	movhi	r6,129
  800918:	318f4784 	addi	r6,r6,15646
  80091c:	080e8e40 	call	80e8e4 <alt_up_rs232_read_data>
				i++;
  800920:	e0bffa17 	ldw	r2,-24(fp)
  800924:	10800044 	addi	r2,r2,1
  800928:	e0bffa15 	stw	r2,-24(fp)
			} while(i < 3);
  80092c:	e0bffa17 	ldw	r2,-24(fp)
  800930:	108000d0 	cmplti	r2,r2,3
  800934:	103fed1e 	bne	r2,zero,8008ec <RS232_ISR+0x234>
			if(checkAck(com.data) == 1) {
  800938:	01002074 	movhi	r4,129
  80093c:	210f3b04 	addi	r4,r4,15596
  800940:	08020340 	call	802034 <checkAck>
  800944:	10800058 	cmpnei	r2,r2,1
  800948:	1000211e 	bne	r2,zero,8009d0 <RS232_ISR+0x318>
				if(getBit(com.data[0], 1) == 1) {
  80094c:	00802074 	movhi	r2,129
  800950:	108f3b04 	addi	r2,r2,15596
  800954:	10800003 	ldbu	r2,0(r2)
  800958:	11003fcc 	andi	r4,r2,255
  80095c:	01400044 	movi	r5,1
  800960:	08014cc0 	call	8014cc <getBit>
  800964:	10800058 	cmpnei	r2,r2,1
  800968:	1000161e 	bne	r2,zero,8009c4 <RS232_ISR+0x30c>
					setStates(sendAck0);
  80096c:	010001c4 	movi	r4,7
  800970:	08021840 	call	802184 <setStates>
					com.num_packets = ((int)(com.data[1] << 8))+(int)com.data[2];
  800974:	00802074 	movhi	r2,129
  800978:	108f3b04 	addi	r2,r2,15596
  80097c:	10800043 	ldbu	r2,1(r2)
  800980:	10803fcc 	andi	r2,r2,255
  800984:	1006923a 	slli	r3,r2,8
  800988:	00802074 	movhi	r2,129
  80098c:	108f3b04 	addi	r2,r2,15596
  800990:	10800083 	ldbu	r2,2(r2)
  800994:	10803fcc 	andi	r2,r2,255
  800998:	1887883a 	add	r3,r3,r2
  80099c:	00802074 	movhi	r2,129
  8009a0:	108f3b04 	addi	r2,r2,15596
  8009a4:	10c01715 	stw	r3,92(r2)
					printf("num of packets will be receiving: %d\n", com.num_packets);
  8009a8:	00802074 	movhi	r2,129
  8009ac:	108f3b04 	addi	r2,r2,15596
  8009b0:	11401717 	ldw	r5,92(r2)
  8009b4:	01002074 	movhi	r4,129
  8009b8:	213f5904 	addi	r4,r4,-668
  8009bc:	0802e840 	call	802e84 <printf>
  8009c0:	00001406 	br	800a14 <RS232_ISR+0x35c>
				} else
					setStates(sendStates);
  8009c4:	01000044 	movi	r4,1
  8009c8:	08021840 	call	802184 <setStates>
  8009cc:	00001106 	br	800a14 <RS232_ISR+0x35c>
			} else
				setStates(sendStates);
  8009d0:	01000044 	movi	r4,1
  8009d4:	08021840 	call	802184 <setStates>
  8009d8:	00000e06 	br	800a14 <RS232_ISR+0x35c>
		} else {
			com.failReceive++;
  8009dc:	00802074 	movhi	r2,129
  8009e0:	108f3b04 	addi	r2,r2,15596
  8009e4:	10801617 	ldw	r2,88(r2)
  8009e8:	10c00044 	addi	r3,r2,1
  8009ec:	00802074 	movhi	r2,129
  8009f0:	108f3b04 	addi	r2,r2,15596
  8009f4:	10c01615 	stw	r3,88(r2)
			if(com.failReceive > 100) {
  8009f8:	00802074 	movhi	r2,129
  8009fc:	108f3b04 	addi	r2,r2,15596
  800a00:	10801617 	ldw	r2,88(r2)
  800a04:	10801950 	cmplti	r2,r2,101
  800a08:	1000021e 	bne	r2,zero,800a14 <RS232_ISR+0x35c>
				reset(serial_dev);
  800a0c:	e13ffc17 	ldw	r4,-16(fp)
  800a10:	08021d80 	call	8021d8 <reset>
  800a14:	00802074 	movhi	r2,129
  800a18:	108f2c04 	addi	r2,r2,15536
  800a1c:	10800017 	ldw	r2,0(r2)
  800a20:	1009883a 	mov	r4,r2
			}
		}
		return alt_ticks_per_second()/20;
  800a24:	01400504 	movi	r5,20
  800a28:	080266c0 	call	80266c <__udivsi3>
  800a2c:	e0bfff15 	stw	r2,-4(fp)
  800a30:	00017c06 	br	801024 <RS232_ISR+0x96c>
	case sendStates:
		cert = sendStats();
  800a34:	0801db40 	call	801db4 <sendStats>
  800a38:	e0bffb15 	stw	r2,-20(fp)
		sendRS232(serial_dev, cert, 3);
  800a3c:	e13ffc17 	ldw	r4,-16(fp)
  800a40:	e17ffb17 	ldw	r5,-20(fp)
  800a44:	018000c4 	movi	r6,3
  800a48:	08023a40 	call	8023a4 <sendRS232>
		free(cert);
  800a4c:	e13ffb17 	ldw	r4,-20(fp)
  800a50:	080267c0 	call	80267c <free>
		cert = NULL;
  800a54:	e03ffb15 	stw	zero,-20(fp)
		com.failReceive = 0;
  800a58:	00802074 	movhi	r2,129
  800a5c:	108f3b04 	addi	r2,r2,15596
  800a60:	10001615 	stw	zero,88(r2)
  800a64:	00802074 	movhi	r2,129
  800a68:	108f2c04 	addi	r2,r2,15536
  800a6c:	10800017 	ldw	r2,0(r2)
  800a70:	1009883a 	mov	r4,r2
		return alt_ticks_per_second()/20;
  800a74:	01400504 	movi	r5,20
  800a78:	080266c0 	call	80266c <__udivsi3>
  800a7c:	e0bfff15 	stw	r2,-4(fp)
  800a80:	00016806 	br	801024 <RS232_ISR+0x96c>
	case sendAck0:
		cert = sendAck();
  800a84:	0801f140 	call	801f14 <sendAck>
  800a88:	e0bffb15 	stw	r2,-20(fp)
		sendRS232(serial_dev, cert, 3);
  800a8c:	e13ffc17 	ldw	r4,-16(fp)
  800a90:	e17ffb17 	ldw	r5,-20(fp)
  800a94:	018000c4 	movi	r6,3
  800a98:	08023a40 	call	8023a4 <sendRS232>
		if(cert[1] != 0)
  800a9c:	e0bffb17 	ldw	r2,-20(fp)
  800aa0:	10800044 	addi	r2,r2,1
  800aa4:	10800003 	ldbu	r2,0(r2)
  800aa8:	10803fcc 	andi	r2,r2,255
  800aac:	1005003a 	cmpeq	r2,r2,zero
  800ab0:	1000031e 	bne	r2,zero,800ac0 <RS232_ISR+0x408>
			printf("sth is wrong");
  800ab4:	01002074 	movhi	r4,129
  800ab8:	213f6304 	addi	r4,r4,-628
  800abc:	0802e840 	call	802e84 <printf>
		free(cert);
  800ac0:	e13ffb17 	ldw	r4,-20(fp)
  800ac4:	080267c0 	call	80267c <free>
		cert = NULL;
  800ac8:	e03ffb15 	stw	zero,-20(fp)
		com.failReceive = 0;
  800acc:	00802074 	movhi	r2,129
  800ad0:	108f3b04 	addi	r2,r2,15596
  800ad4:	10001615 	stw	zero,88(r2)
  800ad8:	00802074 	movhi	r2,129
  800adc:	108f2c04 	addi	r2,r2,15536
  800ae0:	10800017 	ldw	r2,0(r2)
  800ae4:	1009883a 	mov	r4,r2
		return alt_ticks_per_second()/20;
  800ae8:	01400504 	movi	r5,20
  800aec:	080266c0 	call	80266c <__udivsi3>
  800af0:	e0bfff15 	stw	r2,-4(fp)
  800af4:	00014b06 	br	801024 <RS232_ISR+0x96c>
	case receiveData0:
		if((len = alt_up_rs232_get_used_space_in_read_FIFO(serial_dev)) > 2) {
  800af8:	e13ffc17 	ldw	r4,-16(fp)
  800afc:	080e7d00 	call	80e7d0 <alt_up_rs232_get_used_space_in_read_FIFO>
  800b00:	e0bff915 	stw	r2,-28(fp)
  800b04:	e0bff917 	ldw	r2,-28(fp)
  800b08:	108000d0 	cmplti	r2,r2,3
  800b0c:	10003b1e 	bne	r2,zero,800bfc <RS232_ISR+0x544>
			//read first 2 bytes for header information
			alt_up_rs232_read_data(serial_dev, &com.data[0], &com.parity);
  800b10:	e13ffc17 	ldw	r4,-16(fp)
  800b14:	01402074 	movhi	r5,129
  800b18:	294f3b04 	addi	r5,r5,15596
  800b1c:	01802074 	movhi	r6,129
  800b20:	318f4784 	addi	r6,r6,15646
  800b24:	080e8e40 	call	80e8e4 <alt_up_rs232_read_data>
			alt_up_rs232_read_data(serial_dev, &com.data[1], &com.parity);
  800b28:	01402074 	movhi	r5,129
  800b2c:	294f3b44 	addi	r5,r5,15597
  800b30:	e13ffc17 	ldw	r4,-16(fp)
  800b34:	01802074 	movhi	r6,129
  800b38:	318f4784 	addi	r6,r6,15646
  800b3c:	080e8e40 	call	80e8e4 <alt_up_rs232_read_data>
			struct Packet* p = readPacketHeader(com.data[0], com.data[1]);
  800b40:	00802074 	movhi	r2,129
  800b44:	108f3b04 	addi	r2,r2,15596
  800b48:	10800003 	ldbu	r2,0(r2)
  800b4c:	11003fcc 	andi	r4,r2,255
  800b50:	00802074 	movhi	r2,129
  800b54:	108f3b04 	addi	r2,r2,15596
  800b58:	10800043 	ldbu	r2,1(r2)
  800b5c:	11403fcc 	andi	r5,r2,255
  800b60:	08013140 	call	801314 <readPacketHeader>
  800b64:	e0bff815 	stw	r2,-32(fp)
			i = 0;
  800b68:	e03ffa15 	stw	zero,-24(fp)
  800b6c:	00000006 	br	800b70 <RS232_ISR+0x4b8>
			do {
				while (alt_up_rs232_get_used_space_in_read_FIFO(serial_dev) == 0);
  800b70:	e13ffc17 	ldw	r4,-16(fp)
  800b74:	080e7d00 	call	80e7d0 <alt_up_rs232_get_used_space_in_read_FIFO>
  800b78:	1005003a 	cmpeq	r2,r2,zero
  800b7c:	103ffc1e 	bne	r2,zero,800b70 <RS232_ISR+0x4b8>
				alt_up_rs232_read_data(serial_dev, &(p->data[i+HEADERSIZE]), &com.parity);
  800b80:	e0bff817 	ldw	r2,-32(fp)
  800b84:	10c00017 	ldw	r3,0(r2)
  800b88:	e0bffa17 	ldw	r2,-24(fp)
  800b8c:	1885883a 	add	r2,r3,r2
  800b90:	11400084 	addi	r5,r2,2
  800b94:	e13ffc17 	ldw	r4,-16(fp)
  800b98:	01802074 	movhi	r6,129
  800b9c:	318f4784 	addi	r6,r6,15646
  800ba0:	080e8e40 	call	80e8e4 <alt_up_rs232_read_data>
			//	printf("%c", p->data[i+HEADERSIZE]);
				i++;
  800ba4:	e0bffa17 	ldw	r2,-24(fp)
  800ba8:	10800044 	addi	r2,r2,1
  800bac:	e0bffa15 	stw	r2,-24(fp)
			} while(p->data_size > i );
  800bb0:	e0bff817 	ldw	r2,-32(fp)
  800bb4:	10c00117 	ldw	r3,4(r2)
  800bb8:	e0bffa17 	ldw	r2,-24(fp)
  800bbc:	10ffec16 	blt	r2,r3,800b70 <RS232_ISR+0x4b8>
			//printf("\n");
			enqueue(com.receivePackets, (void*)p);
  800bc0:	00802074 	movhi	r2,129
  800bc4:	108f3b04 	addi	r2,r2,15596
  800bc8:	11000e17 	ldw	r4,56(r2)
  800bcc:	e17ff817 	ldw	r5,-32(fp)
  800bd0:	08017580 	call	801758 <enqueue>
			com.index_packets++;
  800bd4:	00802074 	movhi	r2,129
  800bd8:	108f3b04 	addi	r2,r2,15596
  800bdc:	10801817 	ldw	r2,96(r2)
  800be0:	10c00044 	addi	r3,r2,1
  800be4:	00802074 	movhi	r2,129
  800be8:	108f3b04 	addi	r2,r2,15596
  800bec:	10c01815 	stw	r3,96(r2)
			setStates(sendAck0);
  800bf0:	010001c4 	movi	r4,7
  800bf4:	08021840 	call	802184 <setStates>
  800bf8:	00000e06 	br	800c34 <RS232_ISR+0x57c>
		} else {
			com.failReceive++;
  800bfc:	00802074 	movhi	r2,129
  800c00:	108f3b04 	addi	r2,r2,15596
  800c04:	10801617 	ldw	r2,88(r2)
  800c08:	10c00044 	addi	r3,r2,1
  800c0c:	00802074 	movhi	r2,129
  800c10:	108f3b04 	addi	r2,r2,15596
  800c14:	10c01615 	stw	r3,88(r2)
			if(com.failReceive > 100) {
  800c18:	00802074 	movhi	r2,129
  800c1c:	108f3b04 	addi	r2,r2,15596
  800c20:	10801617 	ldw	r2,88(r2)
  800c24:	10801950 	cmplti	r2,r2,101
  800c28:	1000021e 	bne	r2,zero,800c34 <RS232_ISR+0x57c>
				reset(serial_dev);
  800c2c:	e13ffc17 	ldw	r4,-16(fp)
  800c30:	08021d80 	call	8021d8 <reset>
  800c34:	00802074 	movhi	r2,129
  800c38:	108f2c04 	addi	r2,r2,15536
  800c3c:	10800017 	ldw	r2,0(r2)
  800c40:	1009883a 	mov	r4,r2
			}
		}
		return alt_ticks_per_second()/20;
  800c44:	01400504 	movi	r5,20
  800c48:	080266c0 	call	80266c <__udivsi3>
  800c4c:	e0bfff15 	stw	r2,-4(fp)
  800c50:	0000f406 	br	801024 <RS232_ISR+0x96c>
	case waitClient:
		i = 0;
  800c54:	e03ffa15 	stw	zero,-24(fp)
		if((len = alt_up_rs232_get_used_space_in_read_FIFO(serial_dev)) >= 3) {
  800c58:	e13ffc17 	ldw	r4,-16(fp)
  800c5c:	080e7d00 	call	80e7d0 <alt_up_rs232_get_used_space_in_read_FIFO>
  800c60:	e0bff915 	stw	r2,-28(fp)
  800c64:	e0bff917 	ldw	r2,-28(fp)
  800c68:	108000d0 	cmplti	r2,r2,3
  800c6c:	10002b1e 	bne	r2,zero,800d1c <RS232_ISR+0x664>
  800c70:	00000006 	br	800c74 <RS232_ISR+0x5bc>
			do {
				while (alt_up_rs232_get_used_space_in_read_FIFO(serial_dev) == 0);
  800c74:	e13ffc17 	ldw	r4,-16(fp)
  800c78:	080e7d00 	call	80e7d0 <alt_up_rs232_get_used_space_in_read_FIFO>
  800c7c:	1005003a 	cmpeq	r2,r2,zero
  800c80:	103ffc1e 	bne	r2,zero,800c74 <RS232_ISR+0x5bc>
				alt_up_rs232_read_data(serial_dev, &com.data[i], &com.parity);
  800c84:	e0bffa17 	ldw	r2,-24(fp)
  800c88:	1007883a 	mov	r3,r2
  800c8c:	00802074 	movhi	r2,129
  800c90:	108f3b04 	addi	r2,r2,15596
  800c94:	188b883a 	add	r5,r3,r2
  800c98:	e13ffc17 	ldw	r4,-16(fp)
  800c9c:	01802074 	movhi	r6,129
  800ca0:	318f4784 	addi	r6,r6,15646
  800ca4:	080e8e40 	call	80e8e4 <alt_up_rs232_read_data>
				i++;
  800ca8:	e0bffa17 	ldw	r2,-24(fp)
  800cac:	10800044 	addi	r2,r2,1
  800cb0:	e0bffa15 	stw	r2,-24(fp)
			} while(i < 3);
  800cb4:	e0bffa17 	ldw	r2,-24(fp)
  800cb8:	108000d0 	cmplti	r2,r2,3
  800cbc:	103fed1e 	bne	r2,zero,800c74 <RS232_ISR+0x5bc>
			if(checkAck(com.data) == 1) {
  800cc0:	01002074 	movhi	r4,129
  800cc4:	210f3b04 	addi	r4,r4,15596
  800cc8:	08020340 	call	802034 <checkAck>
  800ccc:	10800058 	cmpnei	r2,r2,1
  800cd0:	1000031e 	bne	r2,zero,800ce0 <RS232_ISR+0x628>
				setStates(sendData0);
  800cd4:	010000c4 	movi	r4,3
  800cd8:	08021840 	call	802184 <setStates>
  800cdc:	00001d06 	br	800d54 <RS232_ISR+0x69c>
			} else {
				com.failReceive++;
  800ce0:	00802074 	movhi	r2,129
  800ce4:	108f3b04 	addi	r2,r2,15596
  800ce8:	10801617 	ldw	r2,88(r2)
  800cec:	10c00044 	addi	r3,r2,1
  800cf0:	00802074 	movhi	r2,129
  800cf4:	108f3b04 	addi	r2,r2,15596
  800cf8:	10c01615 	stw	r3,88(r2)
				if(com.failReceive > 100)
  800cfc:	00802074 	movhi	r2,129
  800d00:	108f3b04 	addi	r2,r2,15596
  800d04:	10801617 	ldw	r2,88(r2)
  800d08:	10801950 	cmplti	r2,r2,101
  800d0c:	1000111e 	bne	r2,zero,800d54 <RS232_ISR+0x69c>
					setStates(sendStates);
  800d10:	01000044 	movi	r4,1
  800d14:	08021840 	call	802184 <setStates>
  800d18:	00000e06 	br	800d54 <RS232_ISR+0x69c>
			}
		} else {
			com.failReceive++;
  800d1c:	00802074 	movhi	r2,129
  800d20:	108f3b04 	addi	r2,r2,15596
  800d24:	10801617 	ldw	r2,88(r2)
  800d28:	10c00044 	addi	r3,r2,1
  800d2c:	00802074 	movhi	r2,129
  800d30:	108f3b04 	addi	r2,r2,15596
  800d34:	10c01615 	stw	r3,88(r2)
			if(com.failReceive > 100) {
  800d38:	00802074 	movhi	r2,129
  800d3c:	108f3b04 	addi	r2,r2,15596
  800d40:	10801617 	ldw	r2,88(r2)
  800d44:	10801950 	cmplti	r2,r2,101
  800d48:	1000021e 	bne	r2,zero,800d54 <RS232_ISR+0x69c>
				reset(serial_dev);
  800d4c:	e13ffc17 	ldw	r4,-16(fp)
  800d50:	08021d80 	call	8021d8 <reset>
  800d54:	00802074 	movhi	r2,129
  800d58:	108f2c04 	addi	r2,r2,15536
  800d5c:	10800017 	ldw	r2,0(r2)
  800d60:	1009883a 	mov	r4,r2
			}
		}
		return alt_ticks_per_second()/20;
  800d64:	01400504 	movi	r5,20
  800d68:	080266c0 	call	80266c <__udivsi3>
  800d6c:	e0bfff15 	stw	r2,-4(fp)
  800d70:	0000ac06 	br	801024 <RS232_ISR+0x96c>
	case sendData0:
		if(com.packetBuf == NULL) {
  800d74:	00802074 	movhi	r2,129
  800d78:	108f3b04 	addi	r2,r2,15596
  800d7c:	10801017 	ldw	r2,64(r2)
  800d80:	1004c03a 	cmpne	r2,r2,zero
  800d84:	10001a1e 	bne	r2,zero,800df0 <RS232_ISR+0x738>
			if((com.packetBuf = (struct Packet*)dequeue(com.sendPackets))==NULL) {
  800d88:	00802074 	movhi	r2,129
  800d8c:	108f3b04 	addi	r2,r2,15596
  800d90:	11000d17 	ldw	r4,52(r2)
  800d94:	08018a40 	call	8018a4 <dequeue>
  800d98:	1007883a 	mov	r3,r2
  800d9c:	00802074 	movhi	r2,129
  800da0:	108f3b04 	addi	r2,r2,15596
  800da4:	10c01015 	stw	r3,64(r2)
  800da8:	00802074 	movhi	r2,129
  800dac:	108f3b04 	addi	r2,r2,15596
  800db0:	10801017 	ldw	r2,64(r2)
  800db4:	1004c03a 	cmpne	r2,r2,zero
  800db8:	10000d1e 	bne	r2,zero,800df0 <RS232_ISR+0x738>
				printf("Packet sending fail, queue is empty");
  800dbc:	01002074 	movhi	r4,129
  800dc0:	213f6704 	addi	r4,r4,-612
  800dc4:	0802e840 	call	802e84 <printf>
				setStates(sendStates);
  800dc8:	01000044 	movi	r4,1
  800dcc:	08021840 	call	802184 <setStates>
  800dd0:	00802074 	movhi	r2,129
  800dd4:	108f2c04 	addi	r2,r2,15536
  800dd8:	10800017 	ldw	r2,0(r2)
  800ddc:	1009883a 	mov	r4,r2
				return alt_ticks_per_second()/50;
  800de0:	01400c84 	movi	r5,50
  800de4:	080266c0 	call	80266c <__udivsi3>
  800de8:	e0bfff15 	stw	r2,-4(fp)
  800dec:	00008d06 	br	801024 <RS232_ISR+0x96c>
			}
		} setAck(com.packetBuf, com.host_ack);
  800df0:	00802074 	movhi	r2,129
  800df4:	108f3b04 	addi	r2,r2,15596
  800df8:	11001017 	ldw	r4,64(r2)
  800dfc:	00802074 	movhi	r2,129
  800e00:	108f3b04 	addi	r2,r2,15596
  800e04:	11401417 	ldw	r5,80(r2)
  800e08:	08015500 	call	801550 <setAck>

		for(i = 0; i< com.packetBuf->data_size+HEADERSIZE; i++) {
  800e0c:	e03ffa15 	stw	zero,-24(fp)
  800e10:	00000d06 	br	800e48 <RS232_ISR+0x790>
			alt_up_rs232_write_data(serial_dev, com.packetBuf->data[i]);
  800e14:	00802074 	movhi	r2,129
  800e18:	108f3b04 	addi	r2,r2,15596
  800e1c:	10801017 	ldw	r2,64(r2)
  800e20:	10c00017 	ldw	r3,0(r2)
  800e24:	e0bffa17 	ldw	r2,-24(fp)
  800e28:	1885883a 	add	r2,r3,r2
  800e2c:	10800003 	ldbu	r2,0(r2)
  800e30:	11403fcc 	andi	r5,r2,255
  800e34:	e13ffc17 	ldw	r4,-16(fp)
  800e38:	080e89c0 	call	80e89c <alt_up_rs232_write_data>
				setStates(sendStates);
				return alt_ticks_per_second()/50;
			}
		} setAck(com.packetBuf, com.host_ack);

		for(i = 0; i< com.packetBuf->data_size+HEADERSIZE; i++) {
  800e3c:	e0bffa17 	ldw	r2,-24(fp)
  800e40:	10800044 	addi	r2,r2,1
  800e44:	e0bffa15 	stw	r2,-24(fp)
  800e48:	00802074 	movhi	r2,129
  800e4c:	108f3b04 	addi	r2,r2,15596
  800e50:	10801017 	ldw	r2,64(r2)
  800e54:	10800117 	ldw	r2,4(r2)
  800e58:	10c00084 	addi	r3,r2,2
  800e5c:	e0bffa17 	ldw	r2,-24(fp)
  800e60:	10ffec16 	blt	r2,r3,800e14 <RS232_ISR+0x75c>
			alt_up_rs232_write_data(serial_dev, com.packetBuf->data[i]);
		}
		setStates(waitAck0);
  800e64:	01000104 	movi	r4,4
  800e68:	08021840 	call	802184 <setStates>
		com.failReceive = 0;
  800e6c:	00802074 	movhi	r2,129
  800e70:	108f3b04 	addi	r2,r2,15596
  800e74:	10001615 	stw	zero,88(r2)
  800e78:	00802074 	movhi	r2,129
  800e7c:	108f2c04 	addi	r2,r2,15536
  800e80:	10800017 	ldw	r2,0(r2)
  800e84:	1009883a 	mov	r4,r2
		return alt_ticks_per_second()/20;
  800e88:	01400504 	movi	r5,20
  800e8c:	080266c0 	call	80266c <__udivsi3>
  800e90:	e0bfff15 	stw	r2,-4(fp)
  800e94:	00006306 	br	801024 <RS232_ISR+0x96c>
	case waitAck0:
		i = 0;
  800e98:	e03ffa15 	stw	zero,-24(fp)
		if((len = alt_up_rs232_get_used_space_in_read_FIFO(serial_dev)) >= 3) {
  800e9c:	e13ffc17 	ldw	r4,-16(fp)
  800ea0:	080e7d00 	call	80e7d0 <alt_up_rs232_get_used_space_in_read_FIFO>
  800ea4:	e0bff915 	stw	r2,-28(fp)
  800ea8:	e0bff917 	ldw	r2,-28(fp)
  800eac:	108000d0 	cmplti	r2,r2,3
  800eb0:	10003f1e 	bne	r2,zero,800fb0 <RS232_ISR+0x8f8>
  800eb4:	00000006 	br	800eb8 <RS232_ISR+0x800>
			do {
				while (alt_up_rs232_get_used_space_in_read_FIFO(serial_dev) == 0);
  800eb8:	e13ffc17 	ldw	r4,-16(fp)
  800ebc:	080e7d00 	call	80e7d0 <alt_up_rs232_get_used_space_in_read_FIFO>
  800ec0:	1005003a 	cmpeq	r2,r2,zero
  800ec4:	103ffc1e 	bne	r2,zero,800eb8 <RS232_ISR+0x800>
				alt_up_rs232_read_data(serial_dev, &com.data[i], &com.parity);
  800ec8:	e0bffa17 	ldw	r2,-24(fp)
  800ecc:	1007883a 	mov	r3,r2
  800ed0:	00802074 	movhi	r2,129
  800ed4:	108f3b04 	addi	r2,r2,15596
  800ed8:	188b883a 	add	r5,r3,r2
  800edc:	e13ffc17 	ldw	r4,-16(fp)
  800ee0:	01802074 	movhi	r6,129
  800ee4:	318f4784 	addi	r6,r6,15646
  800ee8:	080e8e40 	call	80e8e4 <alt_up_rs232_read_data>
				i++;
  800eec:	e0bffa17 	ldw	r2,-24(fp)
  800ef0:	10800044 	addi	r2,r2,1
  800ef4:	e0bffa15 	stw	r2,-24(fp)
			} while(i < 3);
  800ef8:	e0bffa17 	ldw	r2,-24(fp)
  800efc:	108000d0 	cmplti	r2,r2,3
  800f00:	103fed1e 	bne	r2,zero,800eb8 <RS232_ISR+0x800>
			if(checkAck(com.data) == 1) {
  800f04:	01002074 	movhi	r4,129
  800f08:	210f3b04 	addi	r4,r4,15596
  800f0c:	08020340 	call	802034 <checkAck>
  800f10:	10800058 	cmpnei	r2,r2,1
  800f14:	1000231e 	bne	r2,zero,800fa4 <RS232_ISR+0x8ec>
				com.index_send_packets++;
  800f18:	00802074 	movhi	r2,129
  800f1c:	108f3b04 	addi	r2,r2,15596
  800f20:	10801a17 	ldw	r2,104(r2)
  800f24:	10c00044 	addi	r3,r2,1
  800f28:	00802074 	movhi	r2,129
  800f2c:	108f3b04 	addi	r2,r2,15596
  800f30:	10c01a15 	stw	r3,104(r2)
				killPacket(&(com.packetBuf));
  800f34:	01002074 	movhi	r4,129
  800f38:	210f4b04 	addi	r4,r4,15660
  800f3c:	08011240 	call	801124 <killPacket>
				if(com.index_send_packets < com.num_send_packets)
  800f40:	00802074 	movhi	r2,129
  800f44:	108f3b04 	addi	r2,r2,15596
  800f48:	10c01a17 	ldw	r3,104(r2)
  800f4c:	00802074 	movhi	r2,129
  800f50:	108f3b04 	addi	r2,r2,15596
  800f54:	10801917 	ldw	r2,100(r2)
  800f58:	1880030e 	bge	r3,r2,800f68 <RS232_ISR+0x8b0>
					setStates(sendData0);
  800f5c:	010000c4 	movi	r4,3
  800f60:	08021840 	call	802184 <setStates>
  800f64:	00002006 	br	800fe8 <RS232_ISR+0x930>
				else {
					com.index_send_packets = com.num_send_packets = 0;
  800f68:	00802074 	movhi	r2,129
  800f6c:	108f3b04 	addi	r2,r2,15596
  800f70:	10001915 	stw	zero,100(r2)
  800f74:	00802074 	movhi	r2,129
  800f78:	108f3b04 	addi	r2,r2,15596
  800f7c:	10c01917 	ldw	r3,100(r2)
  800f80:	00802074 	movhi	r2,129
  800f84:	108f3b04 	addi	r2,r2,15596
  800f88:	10c01a15 	stw	r3,104(r2)
					setStates(sendStates);
  800f8c:	01000044 	movi	r4,1
  800f90:	08021840 	call	802184 <setStates>
					com.isRdySend = 0;
  800f94:	00802074 	movhi	r2,129
  800f98:	108f3b04 	addi	r2,r2,15596
  800f9c:	10001515 	stw	zero,84(r2)
  800fa0:	00001106 	br	800fe8 <RS232_ISR+0x930>
				}
			} else {
				setStates(sendData0);
  800fa4:	010000c4 	movi	r4,3
  800fa8:	08021840 	call	802184 <setStates>
  800fac:	00000e06 	br	800fe8 <RS232_ISR+0x930>
			}
		} else {
			com.failReceive++;
  800fb0:	00802074 	movhi	r2,129
  800fb4:	108f3b04 	addi	r2,r2,15596
  800fb8:	10801617 	ldw	r2,88(r2)
  800fbc:	10c00044 	addi	r3,r2,1
  800fc0:	00802074 	movhi	r2,129
  800fc4:	108f3b04 	addi	r2,r2,15596
  800fc8:	10c01615 	stw	r3,88(r2)
			if(com.failReceive > 100) {
  800fcc:	00802074 	movhi	r2,129
  800fd0:	108f3b04 	addi	r2,r2,15596
  800fd4:	10801617 	ldw	r2,88(r2)
  800fd8:	10801950 	cmplti	r2,r2,101
  800fdc:	1000021e 	bne	r2,zero,800fe8 <RS232_ISR+0x930>
				reset(serial_dev);
  800fe0:	e13ffc17 	ldw	r4,-16(fp)
  800fe4:	08021d80 	call	8021d8 <reset>
  800fe8:	00802074 	movhi	r2,129
  800fec:	108f2c04 	addi	r2,r2,15536
  800ff0:	10800017 	ldw	r2,0(r2)
  800ff4:	1009883a 	mov	r4,r2
			}
		}
		return alt_ticks_per_second()/20;
  800ff8:	01400504 	movi	r5,20
  800ffc:	080266c0 	call	80266c <__udivsi3>
  801000:	e0bfff15 	stw	r2,-4(fp)
  801004:	00000706 	br	801024 <RS232_ISR+0x96c>
  801008:	00802074 	movhi	r2,129
  80100c:	108f2c04 	addi	r2,r2,15536
  801010:	10800017 	ldw	r2,0(r2)
  801014:	1009883a 	mov	r4,r2
	default:
		break;
	}

	return alt_ticks_per_second()/20;
  801018:	01400504 	movi	r5,20
  80101c:	080266c0 	call	80266c <__udivsi3>
  801020:	e0bfff15 	stw	r2,-4(fp)
  801024:	e0bfff17 	ldw	r2,-4(fp)
}
  801028:	e037883a 	mov	sp,fp
  80102c:	dfc00117 	ldw	ra,4(sp)
  801030:	df000017 	ldw	fp,0(sp)
  801034:	dec00204 	addi	sp,sp,8
  801038:	f800283a 	ret

0080103c <initPacket>:
 *      Author: danny
 */

#include "Packet.h"

struct Packet* initPacket(int data_size, unsigned char* data) {
  80103c:	defffa04 	addi	sp,sp,-24
  801040:	dfc00515 	stw	ra,20(sp)
  801044:	df000415 	stw	fp,16(sp)
  801048:	df000404 	addi	fp,sp,16
  80104c:	e13ffe15 	stw	r4,-8(fp)
  801050:	e17fff15 	stw	r5,-4(fp)
	struct Packet* this = (struct Packet*)malloc(sizeof(struct Packet));
  801054:	01000504 	movi	r4,20
  801058:	08026900 	call	802690 <malloc>
  80105c:	e0bffd15 	stw	r2,-12(fp)
	this->data_size = data_size;
  801060:	e0fffd17 	ldw	r3,-12(fp)
  801064:	e0bffe17 	ldw	r2,-8(fp)
  801068:	18800115 	stw	r2,4(r3)
	this->data = (unsigned char*)malloc(sizeof(unsigned char)*(data_size+HEADERSIZE));
  80106c:	e0bffe17 	ldw	r2,-8(fp)
  801070:	10800084 	addi	r2,r2,2
  801074:	1009883a 	mov	r4,r2
  801078:	08026900 	call	802690 <malloc>
  80107c:	1007883a 	mov	r3,r2
  801080:	e0bffd17 	ldw	r2,-12(fp)
  801084:	10c00015 	stw	r3,0(r2)
	this->data[0] = 0;
  801088:	e0bffd17 	ldw	r2,-12(fp)
  80108c:	10800017 	ldw	r2,0(r2)
  801090:	10000005 	stb	zero,0(r2)
	this->data[1] = (unsigned char)(data_size + HEADERSIZE);
  801094:	e0bffd17 	ldw	r2,-12(fp)
  801098:	10800017 	ldw	r2,0(r2)
  80109c:	10c00044 	addi	r3,r2,1
  8010a0:	e0bffe17 	ldw	r2,-8(fp)
  8010a4:	10800084 	addi	r2,r2,2
  8010a8:	18800005 	stb	r2,0(r3)
	this->type = (enum msgType*)malloc(sizeof(enum msgType));
  8010ac:	01000104 	movi	r4,4
  8010b0:	08026900 	call	802690 <malloc>
  8010b4:	1007883a 	mov	r3,r2
  8010b8:	e0bffd17 	ldw	r2,-12(fp)
  8010bc:	10c00215 	stw	r3,8(r2)
	int i;
	for(i = 0; i < data_size; i++) {
  8010c0:	e03ffc15 	stw	zero,-16(fp)
  8010c4:	00000e06 	br	801100 <initPacket+0xc4>
		this->data[i+HEADERSIZE] = data[i];
  8010c8:	e0bffd17 	ldw	r2,-12(fp)
  8010cc:	10c00017 	ldw	r3,0(r2)
  8010d0:	e0bffc17 	ldw	r2,-16(fp)
  8010d4:	1885883a 	add	r2,r3,r2
  8010d8:	11000084 	addi	r4,r2,2
  8010dc:	e0bffc17 	ldw	r2,-16(fp)
  8010e0:	1007883a 	mov	r3,r2
  8010e4:	e0bfff17 	ldw	r2,-4(fp)
  8010e8:	1885883a 	add	r2,r3,r2
  8010ec:	10800003 	ldbu	r2,0(r2)
  8010f0:	20800005 	stb	r2,0(r4)
	this->data = (unsigned char*)malloc(sizeof(unsigned char)*(data_size+HEADERSIZE));
	this->data[0] = 0;
	this->data[1] = (unsigned char)(data_size + HEADERSIZE);
	this->type = (enum msgType*)malloc(sizeof(enum msgType));
	int i;
	for(i = 0; i < data_size; i++) {
  8010f4:	e0bffc17 	ldw	r2,-16(fp)
  8010f8:	10800044 	addi	r2,r2,1
  8010fc:	e0bffc15 	stw	r2,-16(fp)
  801100:	e0fffc17 	ldw	r3,-16(fp)
  801104:	e0bffe17 	ldw	r2,-8(fp)
  801108:	18bfef16 	blt	r3,r2,8010c8 <initPacket+0x8c>
		this->data[i+HEADERSIZE] = data[i];
	}
	return this;
  80110c:	e0bffd17 	ldw	r2,-12(fp)
}
  801110:	e037883a 	mov	sp,fp
  801114:	dfc00117 	ldw	ra,4(sp)
  801118:	df000017 	ldw	fp,0(sp)
  80111c:	dec00204 	addi	sp,sp,8
  801120:	f800283a 	ret

00801124 <killPacket>:

void killPacket(struct Packet** this) {
  801124:	defffd04 	addi	sp,sp,-12
  801128:	dfc00215 	stw	ra,8(sp)
  80112c:	df000115 	stw	fp,4(sp)
  801130:	df000104 	addi	fp,sp,4
  801134:	e13fff15 	stw	r4,-4(fp)
	if(this == NULL) {
  801138:	e0bfff17 	ldw	r2,-4(fp)
  80113c:	1004c03a 	cmpne	r2,r2,zero
  801140:	1000041e 	bne	r2,zero,801154 <killPacket+0x30>
		printf("packet is null when attempt to removed\n");
  801144:	01002074 	movhi	r4,129
  801148:	213f7004 	addi	r4,r4,-576
  80114c:	0802f9c0 	call	802f9c <puts>
		return;
  801150:	00001306 	br	8011a0 <killPacket+0x7c>
	}
	free((*this)->data);
  801154:	e0bfff17 	ldw	r2,-4(fp)
  801158:	10800017 	ldw	r2,0(r2)
  80115c:	11000017 	ldw	r4,0(r2)
  801160:	080267c0 	call	80267c <free>
	(*this)->data = NULL;
  801164:	e0bfff17 	ldw	r2,-4(fp)
  801168:	10800017 	ldw	r2,0(r2)
  80116c:	10000015 	stw	zero,0(r2)
	free((*this)->type);
  801170:	e0bfff17 	ldw	r2,-4(fp)
  801174:	10800017 	ldw	r2,0(r2)
  801178:	11000217 	ldw	r4,8(r2)
  80117c:	080267c0 	call	80267c <free>
	(*this)->type = NULL;
  801180:	e0bfff17 	ldw	r2,-4(fp)
  801184:	10800017 	ldw	r2,0(r2)
  801188:	10000215 	stw	zero,8(r2)
	free(*this);
  80118c:	e0bfff17 	ldw	r2,-4(fp)
  801190:	11000017 	ldw	r4,0(r2)
  801194:	080267c0 	call	80267c <free>
	*this = NULL;
  801198:	e0bfff17 	ldw	r2,-4(fp)
  80119c:	10000015 	stw	zero,0(r2)
}
  8011a0:	e037883a 	mov	sp,fp
  8011a4:	dfc00117 	ldw	ra,4(sp)
  8011a8:	df000017 	ldw	fp,0(sp)
  8011ac:	dec00204 	addi	sp,sp,8
  8011b0:	f800283a 	ret

008011b4 <setHeader>:

void setHeader(struct Packet* this, int isHead, int isEnd, enum msgType type) {
  8011b4:	defff904 	addi	sp,sp,-28
  8011b8:	dfc00615 	stw	ra,24(sp)
  8011bc:	df000515 	stw	fp,20(sp)
  8011c0:	df000504 	addi	fp,sp,20
  8011c4:	e13ffb15 	stw	r4,-20(fp)
  8011c8:	e17ffc15 	stw	r5,-16(fp)
  8011cc:	e1bffd15 	stw	r6,-12(fp)
  8011d0:	e1fffe15 	stw	r7,-8(fp)
	if(this == NULL) return;
  8011d4:	e0bffb17 	ldw	r2,-20(fp)
  8011d8:	1005003a 	cmpeq	r2,r2,zero
  8011dc:	1000481e 	bne	r2,zero,801300 <setHeader+0x14c>
	if((this->isHead = isHead) == 1) {
  8011e0:	e0fffb17 	ldw	r3,-20(fp)
  8011e4:	e0bffc17 	ldw	r2,-16(fp)
  8011e8:	18800315 	stw	r2,12(r3)
  8011ec:	e0bffb17 	ldw	r2,-20(fp)
  8011f0:	10800317 	ldw	r2,12(r2)
  8011f4:	10800058 	cmpnei	r2,r2,1
  8011f8:	1000041e 	bne	r2,zero,80120c <setHeader+0x58>
		setBit(&this->data[0], 6);
  8011fc:	e0bffb17 	ldw	r2,-20(fp)
  801200:	11000017 	ldw	r4,0(r2)
  801204:	01400184 	movi	r5,6
  801208:	08015040 	call	801504 <setBit>
	}
	if((this->isEnd = isEnd) == 1) {
  80120c:	e0fffb17 	ldw	r3,-20(fp)
  801210:	e0bffd17 	ldw	r2,-12(fp)
  801214:	18800415 	stw	r2,16(r3)
  801218:	e0bffb17 	ldw	r2,-20(fp)
  80121c:	10800417 	ldw	r2,16(r2)
  801220:	10800058 	cmpnei	r2,r2,1
  801224:	1000041e 	bne	r2,zero,801238 <setHeader+0x84>
		setBit(&this->data[0], 5);
  801228:	e0bffb17 	ldw	r2,-20(fp)
  80122c:	11000017 	ldw	r4,0(r2)
  801230:	01400144 	movi	r5,5
  801234:	08015040 	call	801504 <setBit>
	}
	*(this->type) = type;
  801238:	e0bffb17 	ldw	r2,-20(fp)
  80123c:	10c00217 	ldw	r3,8(r2)
  801240:	e0bffe17 	ldw	r2,-8(fp)
  801244:	18800015 	stw	r2,0(r3)
	this->data[0] = this->data[0] & 0xF0;
  801248:	e0bffb17 	ldw	r2,-20(fp)
  80124c:	11000017 	ldw	r4,0(r2)
  801250:	e0bffb17 	ldw	r2,-20(fp)
  801254:	10800017 	ldw	r2,0(r2)
  801258:	10c00003 	ldbu	r3,0(r2)
  80125c:	00bffc04 	movi	r2,-16
  801260:	1884703a 	and	r2,r3,r2
  801264:	20800005 	stb	r2,0(r4)
	switch(type) {
  801268:	e0bffe17 	ldw	r2,-8(fp)
  80126c:	e0bfff15 	stw	r2,-4(fp)
  801270:	e0ffff17 	ldw	r3,-4(fp)
  801274:	18800060 	cmpeqi	r2,r3,1
  801278:	10000a1e 	bne	r2,zero,8012a4 <setHeader+0xf0>
  80127c:	e0ffff17 	ldw	r3,-4(fp)
  801280:	18800070 	cmpltui	r2,r3,1
  801284:	10001e1e 	bne	r2,zero,801300 <setHeader+0x14c>
  801288:	e0ffff17 	ldw	r3,-4(fp)
  80128c:	188000a0 	cmpeqi	r2,r3,2
  801290:	10000c1e 	bne	r2,zero,8012c4 <setHeader+0x110>
  801294:	e0ffff17 	ldw	r3,-4(fp)
  801298:	188000e0 	cmpeqi	r2,r3,3
  80129c:	1000111e 	bne	r2,zero,8012e4 <setHeader+0x130>
  8012a0:	00001706 	br	801300 <setHeader+0x14c>
	case STRING:
		break;
	case CMD:
		this->data[0] = this->data[0] | 0x01;
  8012a4:	e0bffb17 	ldw	r2,-20(fp)
  8012a8:	10c00017 	ldw	r3,0(r2)
  8012ac:	e0bffb17 	ldw	r2,-20(fp)
  8012b0:	10800017 	ldw	r2,0(r2)
  8012b4:	10800003 	ldbu	r2,0(r2)
  8012b8:	10800054 	ori	r2,r2,1
  8012bc:	18800005 	stb	r2,0(r3)
		break;
  8012c0:	00000f06 	br	801300 <setHeader+0x14c>
	case PLAYLIST:
		this->data[0] = this->data[0] | 0x02;
  8012c4:	e0bffb17 	ldw	r2,-20(fp)
  8012c8:	10c00017 	ldw	r3,0(r2)
  8012cc:	e0bffb17 	ldw	r2,-20(fp)
  8012d0:	10800017 	ldw	r2,0(r2)
  8012d4:	10800003 	ldbu	r2,0(r2)
  8012d8:	10800094 	ori	r2,r2,2
  8012dc:	18800005 	stb	r2,0(r3)
		break;
  8012e0:	00000706 	br	801300 <setHeader+0x14c>
	case AUDIO:
		this->data[0] = this->data[0] | 0x03;
  8012e4:	e0bffb17 	ldw	r2,-20(fp)
  8012e8:	10c00017 	ldw	r3,0(r2)
  8012ec:	e0bffb17 	ldw	r2,-20(fp)
  8012f0:	10800017 	ldw	r2,0(r2)
  8012f4:	10800003 	ldbu	r2,0(r2)
  8012f8:	108000d4 	ori	r2,r2,3
  8012fc:	18800005 	stb	r2,0(r3)
		break;
	default:
		break;
	}
}
  801300:	e037883a 	mov	sp,fp
  801304:	dfc00117 	ldw	ra,4(sp)
  801308:	df000017 	ldw	fp,0(sp)
  80130c:	dec00204 	addi	sp,sp,8
  801310:	f800283a 	ret

00801314 <readPacketHeader>:

/*
 * Read the header of receivng packets and return new Packet with header information
 */
struct Packet* readPacketHeader(unsigned char byte1, unsigned char byte2) {
  801314:	defffa04 	addi	sp,sp,-24
  801318:	dfc00515 	stw	ra,20(sp)
  80131c:	df000415 	stw	fp,16(sp)
  801320:	df000404 	addi	fp,sp,16
  801324:	e13ffd05 	stb	r4,-12(fp)
  801328:	e17ffe05 	stb	r5,-8(fp)
	struct Packet* result = (struct Packet*)malloc(sizeof(struct Packet));
  80132c:	01000504 	movi	r4,20
  801330:	08026900 	call	802690 <malloc>
  801334:	e0bffc15 	stw	r2,-16(fp)
	if(result == NULL) {
  801338:	e0bffc17 	ldw	r2,-16(fp)
  80133c:	1004c03a 	cmpne	r2,r2,zero
  801340:	1000031e 	bne	r2,zero,801350 <readPacketHeader+0x3c>
		printf("packet is null at malloc with header\n");
  801344:	01002074 	movhi	r4,129
  801348:	213f7a04 	addi	r4,r4,-536
  80134c:	0802f9c0 	call	802f9c <puts>
	}
	com.client_ack = getBit(byte1, 7);
  801350:	e13ffd03 	ldbu	r4,-12(fp)
  801354:	014001c4 	movi	r5,7
  801358:	08014cc0 	call	8014cc <getBit>
  80135c:	1007883a 	mov	r3,r2
  801360:	00802074 	movhi	r2,129
  801364:	108f3b04 	addi	r2,r2,15596
  801368:	10c01315 	stw	r3,76(r2)
	result->data_size = (int)byte2 - HEADERSIZE;
  80136c:	e0bffe03 	ldbu	r2,-8(fp)
  801370:	10ffff84 	addi	r3,r2,-2
  801374:	e0bffc17 	ldw	r2,-16(fp)
  801378:	10c00115 	stw	r3,4(r2)
	result->data = (unsigned char*)malloc(sizeof(unsigned char)*((int)byte2+HEADERSIZE));
  80137c:	e0bffe03 	ldbu	r2,-8(fp)
  801380:	10800084 	addi	r2,r2,2
  801384:	1009883a 	mov	r4,r2
  801388:	08026900 	call	802690 <malloc>
  80138c:	1007883a 	mov	r3,r2
  801390:	e0bffc17 	ldw	r2,-16(fp)
  801394:	10c00015 	stw	r3,0(r2)
	if(result->data == NULL) {
  801398:	e0bffc17 	ldw	r2,-16(fp)
  80139c:	10800017 	ldw	r2,0(r2)
  8013a0:	1004c03a 	cmpne	r2,r2,zero
  8013a4:	1000031e 	bne	r2,zero,8013b4 <readPacketHeader+0xa0>
		printf("data inside packet is null when malloc with header\n");
  8013a8:	01002074 	movhi	r4,129
  8013ac:	213f8404 	addi	r4,r4,-496
  8013b0:	0802f9c0 	call	802f9c <puts>
	}
	result->data[0] = byte1;
  8013b4:	e0bffc17 	ldw	r2,-16(fp)
  8013b8:	10c00017 	ldw	r3,0(r2)
  8013bc:	e0bffd03 	ldbu	r2,-12(fp)
  8013c0:	18800005 	stb	r2,0(r3)
	result->data[1] = byte2;
  8013c4:	e0bffc17 	ldw	r2,-16(fp)
  8013c8:	10800017 	ldw	r2,0(r2)
  8013cc:	10c00044 	addi	r3,r2,1
  8013d0:	e0bffe03 	ldbu	r2,-8(fp)
  8013d4:	18800005 	stb	r2,0(r3)
	result->isHead = getBit(byte1, 6);
  8013d8:	e13ffd03 	ldbu	r4,-12(fp)
  8013dc:	01400184 	movi	r5,6
  8013e0:	08014cc0 	call	8014cc <getBit>
  8013e4:	1007883a 	mov	r3,r2
  8013e8:	e0bffc17 	ldw	r2,-16(fp)
  8013ec:	10c00315 	stw	r3,12(r2)
	result->isEnd = getBit(byte1, 5);
  8013f0:	e13ffd03 	ldbu	r4,-12(fp)
  8013f4:	01400144 	movi	r5,5
  8013f8:	08014cc0 	call	8014cc <getBit>
  8013fc:	1007883a 	mov	r3,r2
  801400:	e0bffc17 	ldw	r2,-16(fp)
  801404:	10c00415 	stw	r3,16(r2)
	result->type = (enum msgType*)malloc(sizeof(enum msgType));
  801408:	01000104 	movi	r4,4
  80140c:	08026900 	call	802690 <malloc>
  801410:	1007883a 	mov	r3,r2
  801414:	e0bffc17 	ldw	r2,-16(fp)
  801418:	10c00215 	stw	r3,8(r2)
	switch((int)(byte1 & 0x0F)) {
  80141c:	e0bffd03 	ldbu	r2,-12(fp)
  801420:	108003cc 	andi	r2,r2,15
  801424:	e0bfff15 	stw	r2,-4(fp)
  801428:	e0ffff17 	ldw	r3,-4(fp)
  80142c:	18800060 	cmpeqi	r2,r3,1
  801430:	1000121e 	bne	r2,zero,80147c <readPacketHeader+0x168>
  801434:	e0ffff17 	ldw	r3,-4(fp)
  801438:	18800088 	cmpgei	r2,r3,2
  80143c:	1000041e 	bne	r2,zero,801450 <readPacketHeader+0x13c>
  801440:	e0ffff17 	ldw	r3,-4(fp)
  801444:	1805003a 	cmpeq	r2,r3,zero
  801448:	1000081e 	bne	r2,zero,80146c <readPacketHeader+0x158>
  80144c:	00001906 	br	8014b4 <readPacketHeader+0x1a0>
  801450:	e0ffff17 	ldw	r3,-4(fp)
  801454:	188000a0 	cmpeqi	r2,r3,2
  801458:	10000d1e 	bne	r2,zero,801490 <readPacketHeader+0x17c>
  80145c:	e0ffff17 	ldw	r3,-4(fp)
  801460:	188000e0 	cmpeqi	r2,r3,3
  801464:	10000f1e 	bne	r2,zero,8014a4 <readPacketHeader+0x190>
  801468:	00001206 	br	8014b4 <readPacketHeader+0x1a0>
	case 0:
		*result->type = STRING;
  80146c:	e0bffc17 	ldw	r2,-16(fp)
  801470:	10800217 	ldw	r2,8(r2)
  801474:	10000015 	stw	zero,0(r2)
		break;
  801478:	00000e06 	br	8014b4 <readPacketHeader+0x1a0>
	case 1:
		*result->type = CMD;
  80147c:	e0bffc17 	ldw	r2,-16(fp)
  801480:	10c00217 	ldw	r3,8(r2)
  801484:	00800044 	movi	r2,1
  801488:	18800015 	stw	r2,0(r3)
		break;
  80148c:	00000906 	br	8014b4 <readPacketHeader+0x1a0>
	case 2:
		*result->type = PLAYLIST;
  801490:	e0bffc17 	ldw	r2,-16(fp)
  801494:	10c00217 	ldw	r3,8(r2)
  801498:	00800084 	movi	r2,2
  80149c:	18800015 	stw	r2,0(r3)
		break;
  8014a0:	00000406 	br	8014b4 <readPacketHeader+0x1a0>
	case 3:
		*result->type = AUDIO;
  8014a4:	e0bffc17 	ldw	r2,-16(fp)
  8014a8:	10c00217 	ldw	r3,8(r2)
  8014ac:	008000c4 	movi	r2,3
  8014b0:	18800015 	stw	r2,0(r3)
		break;
	default:
		break;
	}
	return result;
  8014b4:	e0bffc17 	ldw	r2,-16(fp)
}
  8014b8:	e037883a 	mov	sp,fp
  8014bc:	dfc00117 	ldw	ra,4(sp)
  8014c0:	df000017 	ldw	fp,0(sp)
  8014c4:	dec00204 	addi	sp,sp,8
  8014c8:	f800283a 	ret

008014cc <getBit>:

int getBit(unsigned char byte, int pos) {
  8014cc:	defffd04 	addi	sp,sp,-12
  8014d0:	df000215 	stw	fp,8(sp)
  8014d4:	df000204 	addi	fp,sp,8
  8014d8:	e17fff15 	stw	r5,-4(fp)
  8014dc:	e13ffe05 	stb	r4,-8(fp)
	return ((byte & (1 << pos)) == 0) ? 0 : 1;
  8014e0:	e0fffe03 	ldbu	r3,-8(fp)
  8014e4:	e0bfff17 	ldw	r2,-4(fp)
  8014e8:	1885d83a 	sra	r2,r3,r2
  8014ec:	1080004c 	andi	r2,r2,1
  8014f0:	1004c03a 	cmpne	r2,r2,zero
}
  8014f4:	e037883a 	mov	sp,fp
  8014f8:	df000017 	ldw	fp,0(sp)
  8014fc:	dec00104 	addi	sp,sp,4
  801500:	f800283a 	ret

00801504 <setBit>:
void setBit(unsigned char* byte, int pos) {
  801504:	defffd04 	addi	sp,sp,-12
  801508:	df000215 	stw	fp,8(sp)
  80150c:	df000204 	addi	fp,sp,8
  801510:	e13ffe15 	stw	r4,-8(fp)
  801514:	e17fff15 	stw	r5,-4(fp)
	*byte = (*byte | (1 << pos));
  801518:	e0bffe17 	ldw	r2,-8(fp)
  80151c:	10800003 	ldbu	r2,0(r2)
  801520:	1009883a 	mov	r4,r2
  801524:	00c00044 	movi	r3,1
  801528:	e0bfff17 	ldw	r2,-4(fp)
  80152c:	1884983a 	sll	r2,r3,r2
  801530:	2084b03a 	or	r2,r4,r2
  801534:	1007883a 	mov	r3,r2
  801538:	e0bffe17 	ldw	r2,-8(fp)
  80153c:	10c00005 	stb	r3,0(r2)
}
  801540:	e037883a 	mov	sp,fp
  801544:	df000017 	ldw	fp,0(sp)
  801548:	dec00104 	addi	sp,sp,4
  80154c:	f800283a 	ret

00801550 <setAck>:

void setAck(struct Packet* this, int ack) {
  801550:	defffc04 	addi	sp,sp,-16
  801554:	dfc00315 	stw	ra,12(sp)
  801558:	df000215 	stw	fp,8(sp)
  80155c:	df000204 	addi	fp,sp,8
  801560:	e13ffe15 	stw	r4,-8(fp)
  801564:	e17fff15 	stw	r5,-4(fp)
	if(ack == 1) {
  801568:	e0bfff17 	ldw	r2,-4(fp)
  80156c:	10800058 	cmpnei	r2,r2,1
  801570:	1000041e 	bne	r2,zero,801584 <setAck+0x34>
		setBit(&this->data[0], 7);
  801574:	e0bffe17 	ldw	r2,-8(fp)
  801578:	11000017 	ldw	r4,0(r2)
  80157c:	014001c4 	movi	r5,7
  801580:	08015040 	call	801504 <setBit>
	}
}
  801584:	e037883a 	mov	sp,fp
  801588:	dfc00117 	ldw	ra,4(sp)
  80158c:	df000017 	ldw	fp,0(sp)
  801590:	dec00204 	addi	sp,sp,8
  801594:	f800283a 	ret

00801598 <strnsep_>:
/*
 * return a sub string from position 0 to pos and leave old string from pos to end
 * @parm pos index of string to cut
 */
char* strnsep_(char** str, int pos) {
  801598:	defff504 	addi	sp,sp,-44
  80159c:	dfc00a15 	stw	ra,40(sp)
  8015a0:	df000915 	stw	fp,36(sp)
  8015a4:	df000904 	addi	fp,sp,36
  8015a8:	e13ffb15 	stw	r4,-20(fp)
  8015ac:	e17ffc15 	stw	r5,-16(fp)
  8015b0:	e6ffff15 	stw	sp,-4(fp)
  8015b4:	d805883a 	mov	r2,sp
  8015b8:	e0bffd15 	stw	r2,-12(fp)
	char* result = (char*)malloc(sizeof(char)*pos);
  8015bc:	e13ffc17 	ldw	r4,-16(fp)
  8015c0:	08026900 	call	802690 <malloc>
  8015c4:	e0bff915 	stw	r2,-28(fp)
	int i;
	int len = strlen(*str);
  8015c8:	e0bffb17 	ldw	r2,-20(fp)
  8015cc:	11000017 	ldw	r4,0(r2)
  8015d0:	08036300 	call	803630 <strlen>
  8015d4:	e0bff715 	stw	r2,-36(fp)
	char temp[len-pos];
  8015d8:	e0fff717 	ldw	r3,-36(fp)
  8015dc:	e0bffc17 	ldw	r2,-16(fp)
  8015e0:	1885c83a 	sub	r2,r3,r2
  8015e4:	108000c4 	addi	r2,r2,3
  8015e8:	108000c4 	addi	r2,r2,3
  8015ec:	1004d0ba 	srli	r2,r2,2
  8015f0:	1085883a 	add	r2,r2,r2
  8015f4:	1085883a 	add	r2,r2,r2
  8015f8:	d8b7c83a 	sub	sp,sp,r2
  8015fc:	e6fffe15 	stw	sp,-8(fp)
  801600:	e0fffe17 	ldw	r3,-8(fp)
  801604:	188000c4 	addi	r2,r3,3
  801608:	1004d0ba 	srli	r2,r2,2
  80160c:	1085883a 	add	r2,r2,r2
  801610:	1085883a 	add	r2,r2,r2
  801614:	e0bffe15 	stw	r2,-8(fp)
  801618:	e0bffe17 	ldw	r2,-8(fp)
  80161c:	e0bffa15 	stw	r2,-24(fp)
	for(i = 0; i < len; i++) {
  801620:	e03ff815 	stw	zero,-32(fp)
  801624:	00001c06 	br	801698 <strnsep_+0x100>
		if(i < pos)
  801628:	e0fff817 	ldw	r3,-32(fp)
  80162c:	e0bffc17 	ldw	r2,-16(fp)
  801630:	18800b0e 	bge	r3,r2,801660 <strnsep_+0xc8>
			result[i] = (*str)[i];
  801634:	e0bff817 	ldw	r2,-32(fp)
  801638:	1007883a 	mov	r3,r2
  80163c:	e0bff917 	ldw	r2,-28(fp)
  801640:	1889883a 	add	r4,r3,r2
  801644:	e0bffb17 	ldw	r2,-20(fp)
  801648:	10c00017 	ldw	r3,0(r2)
  80164c:	e0bff817 	ldw	r2,-32(fp)
  801650:	1885883a 	add	r2,r3,r2
  801654:	10800003 	ldbu	r2,0(r2)
  801658:	20800005 	stb	r2,0(r4)
  80165c:	00000b06 	br	80168c <strnsep_+0xf4>
		else
			temp[i-pos] = (*str)[i];
  801660:	e0fff817 	ldw	r3,-32(fp)
  801664:	e0bffc17 	ldw	r2,-16(fp)
  801668:	1889c83a 	sub	r4,r3,r2
  80166c:	e0bffb17 	ldw	r2,-20(fp)
  801670:	10c00017 	ldw	r3,0(r2)
  801674:	e0bff817 	ldw	r2,-32(fp)
  801678:	1885883a 	add	r2,r3,r2
  80167c:	10c00003 	ldbu	r3,0(r2)
  801680:	e0bffa17 	ldw	r2,-24(fp)
  801684:	1105883a 	add	r2,r2,r4
  801688:	10c00005 	stb	r3,0(r2)
char* strnsep_(char** str, int pos) {
	char* result = (char*)malloc(sizeof(char)*pos);
	int i;
	int len = strlen(*str);
	char temp[len-pos];
	for(i = 0; i < len; i++) {
  80168c:	e0bff817 	ldw	r2,-32(fp)
  801690:	10800044 	addi	r2,r2,1
  801694:	e0bff815 	stw	r2,-32(fp)
  801698:	e0fff817 	ldw	r3,-32(fp)
  80169c:	e0bff717 	ldw	r2,-36(fp)
  8016a0:	18bfe116 	blt	r3,r2,801628 <strnsep_+0x90>
		if(i < pos)
			result[i] = (*str)[i];
		else
			temp[i-pos] = (*str)[i];
	}
	*str = (char*)realloc(*str, len-pos);
  8016a4:	e0bffb17 	ldw	r2,-20(fp)
  8016a8:	11000017 	ldw	r4,0(r2)
  8016ac:	e0fff717 	ldw	r3,-36(fp)
  8016b0:	e0bffc17 	ldw	r2,-16(fp)
  8016b4:	1885c83a 	sub	r2,r3,r2
  8016b8:	100b883a 	mov	r5,r2
  8016bc:	0802fb00 	call	802fb0 <realloc>
  8016c0:	1007883a 	mov	r3,r2
  8016c4:	e0bffb17 	ldw	r2,-20(fp)
  8016c8:	10c00015 	stw	r3,0(r2)
	strncpy(*str, temp, len-pos);
  8016cc:	e0bffb17 	ldw	r2,-20(fp)
  8016d0:	11000017 	ldw	r4,0(r2)
  8016d4:	e17ffa17 	ldw	r5,-24(fp)
  8016d8:	e0fff717 	ldw	r3,-36(fp)
  8016dc:	e0bffc17 	ldw	r2,-16(fp)
  8016e0:	1885c83a 	sub	r2,r3,r2
  8016e4:	100d883a 	mov	r6,r2
  8016e8:	08036a40 	call	8036a4 <strncpy>
	return result;
  8016ec:	e0bff917 	ldw	r2,-28(fp)
  8016f0:	e6fffd17 	ldw	sp,-12(fp)
}
  8016f4:	e6ffff17 	ldw	sp,-4(fp)
  8016f8:	e037883a 	mov	sp,fp
  8016fc:	dfc00117 	ldw	ra,4(sp)
  801700:	df000017 	ldw	fp,0(sp)
  801704:	dec00204 	addi	sp,sp,8
  801708:	f800283a 	ret

0080170c <initQueue>:
 */

#include "Queue.h"
int queue_lock = 0;

struct Queue* initQueue() {
  80170c:	defffd04 	addi	sp,sp,-12
  801710:	dfc00215 	stw	ra,8(sp)
  801714:	df000115 	stw	fp,4(sp)
  801718:	df000104 	addi	fp,sp,4
	struct Queue* this = (struct Queue*)malloc(sizeof(struct Queue));
  80171c:	01000304 	movi	r4,12
  801720:	08026900 	call	802690 <malloc>
  801724:	e0bfff15 	stw	r2,-4(fp)
	this->size = 0;
  801728:	e0bfff17 	ldw	r2,-4(fp)
  80172c:	10000015 	stw	zero,0(r2)
	this->tail = NULL;
  801730:	e0bfff17 	ldw	r2,-4(fp)
  801734:	10000215 	stw	zero,8(r2)
	this->head = NULL;
  801738:	e0bfff17 	ldw	r2,-4(fp)
  80173c:	10000115 	stw	zero,4(r2)
	return this;
  801740:	e0bfff17 	ldw	r2,-4(fp)
}
  801744:	e037883a 	mov	sp,fp
  801748:	dfc00117 	ldw	ra,4(sp)
  80174c:	df000017 	ldw	fp,0(sp)
  801750:	dec00204 	addi	sp,sp,8
  801754:	f800283a 	ret

00801758 <enqueue>:

void enqueue(struct Queue* this, void* obj) {
  801758:	defffb04 	addi	sp,sp,-20
  80175c:	dfc00415 	stw	ra,16(sp)
  801760:	df000315 	stw	fp,12(sp)
  801764:	dc000215 	stw	r16,8(sp)
  801768:	df000204 	addi	fp,sp,8
  80176c:	e13ffe15 	stw	r4,-8(fp)
  801770:	e17fff15 	stw	r5,-4(fp)
	if(this == NULL || obj == NULL || obj == this->tail->obj) {
  801774:	e0bffe17 	ldw	r2,-8(fp)
  801778:	1005003a 	cmpeq	r2,r2,zero
  80177c:	1000081e 	bne	r2,zero,8017a0 <enqueue+0x48>
  801780:	e0bfff17 	ldw	r2,-4(fp)
  801784:	1005003a 	cmpeq	r2,r2,zero
  801788:	1000051e 	bne	r2,zero,8017a0 <enqueue+0x48>
  80178c:	e0bffe17 	ldw	r2,-8(fp)
  801790:	10800217 	ldw	r2,8(r2)
  801794:	10c00217 	ldw	r3,8(r2)
  801798:	e0bfff17 	ldw	r2,-4(fp)
  80179c:	1880041e 	bne	r3,r2,8017b0 <enqueue+0x58>
		printf("ENQUEUE fail\n");
  8017a0:	01002074 	movhi	r4,129
  8017a4:	213f9104 	addi	r4,r4,-444
  8017a8:	0802f9c0 	call	802f9c <puts>
		return;
  8017ac:	00003706 	br	80188c <enqueue+0x134>
	}
	queue_lock = 1;
  8017b0:	00800044 	movi	r2,1
  8017b4:	d0a71515 	stw	r2,-25516(gp)
	if(this->size == 0) {
  8017b8:	e0bffe17 	ldw	r2,-8(fp)
  8017bc:	10800017 	ldw	r2,0(r2)
  8017c0:	1004c03a 	cmpne	r2,r2,zero
  8017c4:	1000141e 	bne	r2,zero,801818 <enqueue+0xc0>
		this->head = (struct QueueData*)malloc(sizeof(struct QueueData));
  8017c8:	01000304 	movi	r4,12
  8017cc:	08026900 	call	802690 <malloc>
  8017d0:	1007883a 	mov	r3,r2
  8017d4:	e0bffe17 	ldw	r2,-8(fp)
  8017d8:	10c00115 	stw	r3,4(r2)
		this->head->next = NULL;
  8017dc:	e0bffe17 	ldw	r2,-8(fp)
  8017e0:	10800117 	ldw	r2,4(r2)
  8017e4:	10000015 	stw	zero,0(r2)
		this->head->prev = NULL;
  8017e8:	e0bffe17 	ldw	r2,-8(fp)
  8017ec:	10800117 	ldw	r2,4(r2)
  8017f0:	10000115 	stw	zero,4(r2)
		this->head->obj = obj;
  8017f4:	e0bffe17 	ldw	r2,-8(fp)
  8017f8:	10c00117 	ldw	r3,4(r2)
  8017fc:	e0bfff17 	ldw	r2,-4(fp)
  801800:	18800215 	stw	r2,8(r3)
		this->tail = this->head;
  801804:	e0bffe17 	ldw	r2,-8(fp)
  801808:	10c00117 	ldw	r3,4(r2)
  80180c:	e0bffe17 	ldw	r2,-8(fp)
  801810:	10c00215 	stw	r3,8(r2)
  801814:	00001706 	br	801874 <enqueue+0x11c>
	} else {
		this->tail->next = (struct QueueData*)malloc(sizeof(struct QueueData));
  801818:	e0bffe17 	ldw	r2,-8(fp)
  80181c:	14000217 	ldw	r16,8(r2)
  801820:	01000304 	movi	r4,12
  801824:	08026900 	call	802690 <malloc>
  801828:	80800015 	stw	r2,0(r16)
		this->tail->next->prev = this->tail;
  80182c:	e0bffe17 	ldw	r2,-8(fp)
  801830:	10800217 	ldw	r2,8(r2)
  801834:	10c00017 	ldw	r3,0(r2)
  801838:	e0bffe17 	ldw	r2,-8(fp)
  80183c:	10800217 	ldw	r2,8(r2)
  801840:	18800115 	stw	r2,4(r3)
		this->tail = this->tail->next;
  801844:	e0bffe17 	ldw	r2,-8(fp)
  801848:	10800217 	ldw	r2,8(r2)
  80184c:	10c00017 	ldw	r3,0(r2)
  801850:	e0bffe17 	ldw	r2,-8(fp)
  801854:	10c00215 	stw	r3,8(r2)
		this->tail->obj = obj;
  801858:	e0bffe17 	ldw	r2,-8(fp)
  80185c:	10c00217 	ldw	r3,8(r2)
  801860:	e0bfff17 	ldw	r2,-4(fp)
  801864:	18800215 	stw	r2,8(r3)
		this->tail->next = NULL;
  801868:	e0bffe17 	ldw	r2,-8(fp)
  80186c:	10800217 	ldw	r2,8(r2)
  801870:	10000015 	stw	zero,0(r2)
	}
	this->size++;
  801874:	e0bffe17 	ldw	r2,-8(fp)
  801878:	10800017 	ldw	r2,0(r2)
  80187c:	10c00044 	addi	r3,r2,1
  801880:	e0bffe17 	ldw	r2,-8(fp)
  801884:	10c00015 	stw	r3,0(r2)
	queue_lock = 0;
  801888:	d0271515 	stw	zero,-25516(gp)
}
  80188c:	e037883a 	mov	sp,fp
  801890:	dfc00217 	ldw	ra,8(sp)
  801894:	df000117 	ldw	fp,4(sp)
  801898:	dc000017 	ldw	r16,0(sp)
  80189c:	dec00304 	addi	sp,sp,12
  8018a0:	f800283a 	ret

008018a4 <dequeue>:

void* dequeue(struct Queue* this) {
  8018a4:	defffa04 	addi	sp,sp,-24
  8018a8:	dfc00515 	stw	ra,20(sp)
  8018ac:	df000415 	stw	fp,16(sp)
  8018b0:	df000404 	addi	fp,sp,16
  8018b4:	e13ffe15 	stw	r4,-8(fp)
	if(this == NULL || this->size <= 0) {
  8018b8:	e0bffe17 	ldw	r2,-8(fp)
  8018bc:	1005003a 	cmpeq	r2,r2,zero
  8018c0:	1000041e 	bne	r2,zero,8018d4 <dequeue+0x30>
  8018c4:	e0bffe17 	ldw	r2,-8(fp)
  8018c8:	10800017 	ldw	r2,0(r2)
  8018cc:	10800048 	cmpgei	r2,r2,1
  8018d0:	1000051e 	bne	r2,zero,8018e8 <dequeue+0x44>
		printf("dequeue returns null\n");
  8018d4:	01002074 	movhi	r4,129
  8018d8:	213f9504 	addi	r4,r4,-428
  8018dc:	0802f9c0 	call	802f9c <puts>
		return NULL;
  8018e0:	e03fff15 	stw	zero,-4(fp)
  8018e4:	00002a06 	br	801990 <dequeue+0xec>
	}
	queue_lock = 1;
  8018e8:	00800044 	movi	r2,1
  8018ec:	d0a71515 	stw	r2,-25516(gp)
	if(this->size == 1)
  8018f0:	e0bffe17 	ldw	r2,-8(fp)
  8018f4:	10800017 	ldw	r2,0(r2)
  8018f8:	10800058 	cmpnei	r2,r2,1
  8018fc:	1000021e 	bne	r2,zero,801908 <dequeue+0x64>
		this->tail = NULL;
  801900:	e0bffe17 	ldw	r2,-8(fp)
  801904:	10000215 	stw	zero,8(r2)
	struct QueueData* temp = this->head;
  801908:	e0bffe17 	ldw	r2,-8(fp)
  80190c:	10800117 	ldw	r2,4(r2)
  801910:	e0bffd15 	stw	r2,-12(fp)
	void* result = this->head->obj;
  801914:	e0bffe17 	ldw	r2,-8(fp)
  801918:	10800117 	ldw	r2,4(r2)
  80191c:	10800217 	ldw	r2,8(r2)
  801920:	e0bffc15 	stw	r2,-16(fp)
	this->head = this->head->next;
  801924:	e0bffe17 	ldw	r2,-8(fp)
  801928:	10800117 	ldw	r2,4(r2)
  80192c:	10c00017 	ldw	r3,0(r2)
  801930:	e0bffe17 	ldw	r2,-8(fp)
  801934:	10c00115 	stw	r3,4(r2)
	temp->obj = NULL;
  801938:	e0bffd17 	ldw	r2,-12(fp)
  80193c:	10000215 	stw	zero,8(r2)
	if(this->head != NULL)
  801940:	e0bffe17 	ldw	r2,-8(fp)
  801944:	10800117 	ldw	r2,4(r2)
  801948:	1005003a 	cmpeq	r2,r2,zero
  80194c:	1000031e 	bne	r2,zero,80195c <dequeue+0xb8>
		this->head->prev = NULL;
  801950:	e0bffe17 	ldw	r2,-8(fp)
  801954:	10800117 	ldw	r2,4(r2)
  801958:	10000115 	stw	zero,4(r2)
	temp->next = NULL;
  80195c:	e0bffd17 	ldw	r2,-12(fp)
  801960:	10000015 	stw	zero,0(r2)
	free(temp);
  801964:	e13ffd17 	ldw	r4,-12(fp)
  801968:	080267c0 	call	80267c <free>
	temp = NULL;
  80196c:	e03ffd15 	stw	zero,-12(fp)
	this->size--;
  801970:	e0bffe17 	ldw	r2,-8(fp)
  801974:	10800017 	ldw	r2,0(r2)
  801978:	10ffffc4 	addi	r3,r2,-1
  80197c:	e0bffe17 	ldw	r2,-8(fp)
  801980:	10c00015 	stw	r3,0(r2)
	queue_lock = 0;
  801984:	d0271515 	stw	zero,-25516(gp)
	return result;
  801988:	e0bffc17 	ldw	r2,-16(fp)
  80198c:	e0bfff15 	stw	r2,-4(fp)
  801990:	e0bfff17 	ldw	r2,-4(fp)
}
  801994:	e037883a 	mov	sp,fp
  801998:	dfc00117 	ldw	ra,4(sp)
  80199c:	df000017 	ldw	fp,0(sp)
  8019a0:	dec00204 	addi	sp,sp,8
  8019a4:	f800283a 	ret

008019a8 <killQueueData>:

void killQueueData(struct QueueData** this) {
  8019a8:	defffd04 	addi	sp,sp,-12
  8019ac:	dfc00215 	stw	ra,8(sp)
  8019b0:	df000115 	stw	fp,4(sp)
  8019b4:	df000104 	addi	fp,sp,4
  8019b8:	e13fff15 	stw	r4,-4(fp)
	if(this == NULL) return;
  8019bc:	e0bfff17 	ldw	r2,-4(fp)
  8019c0:	1005003a 	cmpeq	r2,r2,zero
  8019c4:	10000e1e 	bne	r2,zero,801a00 <killQueueData+0x58>
	(*this)->next =NULL;
  8019c8:	e0bfff17 	ldw	r2,-4(fp)
  8019cc:	10800017 	ldw	r2,0(r2)
  8019d0:	10000015 	stw	zero,0(r2)
	(*this)->prev = NULL;
  8019d4:	e0bfff17 	ldw	r2,-4(fp)
  8019d8:	10800017 	ldw	r2,0(r2)
  8019dc:	10000115 	stw	zero,4(r2)
	(*this)->obj = NULL;
  8019e0:	e0bfff17 	ldw	r2,-4(fp)
  8019e4:	10800017 	ldw	r2,0(r2)
  8019e8:	10000215 	stw	zero,8(r2)
	free(*this);
  8019ec:	e0bfff17 	ldw	r2,-4(fp)
  8019f0:	11000017 	ldw	r4,0(r2)
  8019f4:	080267c0 	call	80267c <free>
	*this = NULL;
  8019f8:	e0bfff17 	ldw	r2,-4(fp)
  8019fc:	10000015 	stw	zero,0(r2)
}
  801a00:	e037883a 	mov	sp,fp
  801a04:	dfc00117 	ldw	ra,4(sp)
  801a08:	df000017 	ldw	fp,0(sp)
  801a0c:	dec00204 	addi	sp,sp,8
  801a10:	f800283a 	ret

00801a14 <initRS232>:
struct alt_up_dev up_dev;

/*
 * Initialization of Serail communication
 */
struct RS232 initRS232() {
  801a14:	deffe104 	addi	sp,sp,-124
  801a18:	dfc01e15 	stw	ra,120(sp)
  801a1c:	df001d15 	stw	fp,116(sp)
  801a20:	df001d04 	addi	fp,sp,116
  801a24:	e13fff15 	stw	r4,-4(fp)
	struct RS232 com_local;
	com_local.receivePackets = initQueue();
  801a28:	080170c0 	call	80170c <initQueue>
  801a2c:	e0bff215 	stw	r2,-56(fp)
	com_local.sendPackets = initQueue();
  801a30:	080170c0 	call	80170c <initQueue>
  801a34:	e0bff115 	stw	r2,-60(fp)
	com_local.pendingPacketSize = initQueue();
  801a38:	080170c0 	call	80170c <initQueue>
  801a3c:	e0bff315 	stw	r2,-52(fp)
	com_local.client_ack = 0;
  801a40:	e03ff715 	stw	zero,-36(fp)
	com_local.host_ack = 0;
  801a44:	e03ff815 	stw	zero,-32(fp)
	com_local.isRdySend = 0;
  801a48:	e03ff915 	stw	zero,-28(fp)
	com_local.failReceive = 0;
  801a4c:	e03ffa15 	stw	zero,-24(fp)
	com_local.stateMachine = (enum States*)malloc(sizeof(enum States));
  801a50:	01000104 	movi	r4,4
  801a54:	08026900 	call	802690 <malloc>
  801a58:	e0bff515 	stw	r2,-44(fp)
	com_local.pastState = (enum States*)malloc(sizeof(enum States));
  801a5c:	01000104 	movi	r4,4
  801a60:	08026900 	call	802690 <malloc>
  801a64:	e0bff615 	stw	r2,-40(fp)
	*com_local.stateMachine = startInit;
  801a68:	e0fff517 	ldw	r3,-44(fp)
  801a6c:	00800244 	movi	r2,9
  801a70:	18800015 	stw	r2,0(r3)
	*com_local.pastState = startInit;
  801a74:	e0fff617 	ldw	r3,-40(fp)
  801a78:	00800244 	movi	r2,9
  801a7c:	18800015 	stw	r2,0(r3)
	com_local.num_packets = com_local.index_packets = 0;
  801a80:	e03ffc15 	stw	zero,-16(fp)
  801a84:	e0bffc17 	ldw	r2,-16(fp)
  801a88:	e0bffb15 	stw	r2,-20(fp)
	com_local.num_send_packets = com_local.index_send_packets = 0;
  801a8c:	e03ffe15 	stw	zero,-8(fp)
  801a90:	e0bffe17 	ldw	r2,-8(fp)
  801a94:	e0bffd15 	stw	r2,-12(fp)
	com_local.packetBuf = NULL;
  801a98:	e03ff415 	stw	zero,-48(fp)

	printf("UART Initialization\n");
  801a9c:	01002074 	movhi	r4,129
  801aa0:	213f9b04 	addi	r4,r4,-404
  801aa4:	0802f9c0 	call	802f9c <puts>
	alt_up_rs232_dev* uart = alt_up_rs232_open_dev(RS232_0_NAME);
  801aa8:	01002074 	movhi	r4,129
  801aac:	213fa004 	addi	r4,r4,-384
  801ab0:	080ea7c0 	call	80ea7c <alt_up_rs232_open_dev>
  801ab4:	e0bfe315 	stw	r2,-116(fp)
	up_dev.RS232_dev = uart;
  801ab8:	e0bfe317 	ldw	r2,-116(fp)
  801abc:	d0a71615 	stw	r2,-25512(gp)

	printf("Clearing read buffer to start\n");
  801ac0:	01002074 	movhi	r4,129
  801ac4:	213fa404 	addi	r4,r4,-368
  801ac8:	0802f9c0 	call	802f9c <puts>
	while (alt_up_rs232_get_used_space_in_read_FIFO(uart)) {
  801acc:	00000606 	br	801ae8 <initRS232+0xd4>
		alt_up_rs232_read_data(uart, &com.data[0], &com.parity);
  801ad0:	e13fe317 	ldw	r4,-116(fp)
  801ad4:	01402074 	movhi	r5,129
  801ad8:	294f3b04 	addi	r5,r5,15596
  801adc:	01802074 	movhi	r6,129
  801ae0:	318f4784 	addi	r6,r6,15646
  801ae4:	080e8e40 	call	80e8e4 <alt_up_rs232_read_data>
	printf("UART Initialization\n");
	alt_up_rs232_dev* uart = alt_up_rs232_open_dev(RS232_0_NAME);
	up_dev.RS232_dev = uart;

	printf("Clearing read buffer to start\n");
	while (alt_up_rs232_get_used_space_in_read_FIFO(uart)) {
  801ae8:	e13fe317 	ldw	r4,-116(fp)
  801aec:	080e7d00 	call	80e7d0 <alt_up_rs232_get_used_space_in_read_FIFO>
  801af0:	1004c03a 	cmpne	r2,r2,zero
  801af4:	103ff61e 	bne	r2,zero,801ad0 <initRS232+0xbc>
 * Obtain the system clock rate in ticks/s. 
 */

static ALT_INLINE alt_u32 ALT_ALWAYS_INLINE alt_ticks_per_second (void)
{
  return _alt_tick_rate;
  801af8:	00802074 	movhi	r2,129
  801afc:	108f2c04 	addi	r2,r2,15536
  801b00:	10800017 	ldw	r2,0(r2)
  801b04:	100b883a 	mov	r5,r2
		alt_up_rs232_read_data(uart, &com.data[0], &com.parity);
	}
	alt_alarm_start(&alarm, alt_ticks_per_second(), RS232_ISR, (void*)&up_dev);
  801b08:	01002074 	movhi	r4,129
  801b0c:	210f5604 	addi	r4,r4,15704
  801b10:	01802034 	movhi	r6,128
  801b14:	3181ae04 	addi	r6,r6,1720
  801b18:	d1e71604 	addi	r7,gp,-25512
  801b1c:	080bd740 	call	80bd74 <alt_alarm_start>

	printf("UART Initialization finished\n");
  801b20:	01002074 	movhi	r4,129
  801b24:	213fac04 	addi	r4,r4,-336
  801b28:	0802f9c0 	call	802f9c <puts>
	return com_local;
  801b2c:	e13fff17 	ldw	r4,-4(fp)
  801b30:	e17fe404 	addi	r5,fp,-112
  801b34:	01801b04 	movi	r6,108
  801b38:	0802de40 	call	802de4 <memcpy>
}
  801b3c:	e0bfff17 	ldw	r2,-4(fp)
  801b40:	e037883a 	mov	sp,fp
  801b44:	dfc00117 	ldw	ra,4(sp)
  801b48:	df000017 	ldw	fp,0(sp)
  801b4c:	dec00204 	addi	sp,sp,8
  801b50:	f800283a 	ret

00801b54 <send>:
/*
 * Send data to the other end
 * @parm data data to send; must be void*
 * @parm type type of data to send
 */
int send(void* data, enum msgType type) {
  801b54:	defffa04 	addi	sp,sp,-24
  801b58:	dfc00515 	stw	ra,20(sp)
  801b5c:	df000415 	stw	fp,16(sp)
  801b60:	df000404 	addi	fp,sp,16
  801b64:	e13ffc15 	stw	r4,-16(fp)
  801b68:	e17ffd15 	stw	r5,-12(fp)
	if(data == NULL) return -1;
  801b6c:	e0bffc17 	ldw	r2,-16(fp)
  801b70:	1004c03a 	cmpne	r2,r2,zero
  801b74:	1000031e 	bne	r2,zero,801b84 <send+0x30>
  801b78:	00bfffc4 	movi	r2,-1
  801b7c:	e0bffe15 	stw	r2,-8(fp)
  801b80:	00001d06 	br	801bf8 <send+0xa4>
	switch(type) {
  801b84:	e0fffd17 	ldw	r3,-12(fp)
  801b88:	e0ffff15 	stw	r3,-4(fp)
  801b8c:	e0ffff17 	ldw	r3,-4(fp)
  801b90:	18800060 	cmpeqi	r2,r3,1
  801b94:	1000131e 	bne	r2,zero,801be4 <send+0x90>
  801b98:	e0ffff17 	ldw	r3,-4(fp)
  801b9c:	18800070 	cmpltui	r2,r3,1
  801ba0:	1000071e 	bne	r2,zero,801bc0 <send+0x6c>
  801ba4:	e0ffff17 	ldw	r3,-4(fp)
  801ba8:	188000a0 	cmpeqi	r2,r3,2
  801bac:	10000d1e 	bne	r2,zero,801be4 <send+0x90>
  801bb0:	e0ffff17 	ldw	r3,-4(fp)
  801bb4:	188000e0 	cmpeqi	r2,r3,3
  801bb8:	10000a1e 	bne	r2,zero,801be4 <send+0x90>
  801bbc:	00000606 	br	801bd8 <send+0x84>
	case STRING:
		encodeString((char*)data, com.sendPackets);
  801bc0:	e13ffc17 	ldw	r4,-16(fp)
  801bc4:	00802074 	movhi	r2,129
  801bc8:	108f3b04 	addi	r2,r2,15596
  801bcc:	11400d17 	ldw	r5,52(r2)
  801bd0:	08002040 	call	800204 <encodeString>
		break;
  801bd4:	00000306 	br	801be4 <send+0x90>
	case PLAYLIST:
		break;
	case AUDIO:
		break;
	default:
		return -1;
  801bd8:	00bfffc4 	movi	r2,-1
  801bdc:	e0bffe15 	stw	r2,-8(fp)
  801be0:	00000506 	br	801bf8 <send+0xa4>
	}
	com.isRdySend = 1;
  801be4:	00c02074 	movhi	r3,129
  801be8:	18cf3b04 	addi	r3,r3,15596
  801bec:	00800044 	movi	r2,1
  801bf0:	18801515 	stw	r2,84(r3)
	return 0;
  801bf4:	e03ffe15 	stw	zero,-8(fp)
  801bf8:	e0bffe17 	ldw	r2,-8(fp)
}
  801bfc:	e037883a 	mov	sp,fp
  801c00:	dfc00117 	ldw	ra,4(sp)
  801c04:	df000017 	ldw	fp,0(sp)
  801c08:	dec00204 	addi	sp,sp,8
  801c0c:	f800283a 	ret

00801c10 <sendStartInit>:

unsigned char* sendStartInit() {
  801c10:	defffd04 	addi	sp,sp,-12
  801c14:	dfc00215 	stw	ra,8(sp)
  801c18:	df000115 	stw	fp,4(sp)
  801c1c:	df000104 	addi	fp,sp,4
	unsigned char* cert = (unsigned char*)malloc(sizeof(unsigned char)*3);
  801c20:	010000c4 	movi	r4,3
  801c24:	08026900 	call	802690 <malloc>
  801c28:	e0bfff15 	stw	r2,-4(fp)
	cert[0] = 0xA3; //set the format as 1010+(client_ack)(host_ack)+11
  801c2c:	e0ffff17 	ldw	r3,-4(fp)
  801c30:	00bfe8c4 	movi	r2,-93
  801c34:	18800005 	stb	r2,0(r3)
	cert[1] = 0xAA; //10101010
  801c38:	e0bfff17 	ldw	r2,-4(fp)
  801c3c:	10c00044 	addi	r3,r2,1
  801c40:	00bfea84 	movi	r2,-86
  801c44:	18800005 	stb	r2,0(r3)
	cert[2] = 0xAA; //10101010
  801c48:	e0bfff17 	ldw	r2,-4(fp)
  801c4c:	10c00084 	addi	r3,r2,2
  801c50:	00bfea84 	movi	r2,-86
  801c54:	18800005 	stb	r2,0(r3)

	updateAcknowledge(&cert[0]);
  801c58:	e13fff17 	ldw	r4,-4(fp)
  801c5c:	0801d0c0 	call	801d0c <updateAcknowledge>
	setStates(waitStart);
  801c60:	01000284 	movi	r4,10
  801c64:	08021840 	call	802184 <setStates>
	return cert;
  801c68:	e0bfff17 	ldw	r2,-4(fp)

}
  801c6c:	e037883a 	mov	sp,fp
  801c70:	dfc00117 	ldw	ra,4(sp)
  801c74:	df000017 	ldw	fp,0(sp)
  801c78:	dec00204 	addi	sp,sp,8
  801c7c:	f800283a 	ret

00801c80 <checkStartAck>:

int checkStartAck(unsigned char byte) {
  801c80:	defffc04 	addi	sp,sp,-16
  801c84:	dfc00315 	stw	ra,12(sp)
  801c88:	df000215 	stw	fp,8(sp)
  801c8c:	df000204 	addi	fp,sp,8
  801c90:	e13ffe05 	stb	r4,-8(fp)
	if(((int)(byte & 0xF3) == 0xA3)&& getBit(byte, 2) == com.host_ack) {
  801c94:	e0bffe03 	ldbu	r2,-8(fp)
  801c98:	10803ccc 	andi	r2,r2,243
  801c9c:	108028d8 	cmpnei	r2,r2,163
  801ca0:	1000131e 	bne	r2,zero,801cf0 <checkStartAck+0x70>
  801ca4:	e13ffe03 	ldbu	r4,-8(fp)
  801ca8:	01400084 	movi	r5,2
  801cac:	08014cc0 	call	8014cc <getBit>
  801cb0:	1007883a 	mov	r3,r2
  801cb4:	00802074 	movhi	r2,129
  801cb8:	108f3b04 	addi	r2,r2,15596
  801cbc:	10801417 	ldw	r2,80(r2)
  801cc0:	18800b1e 	bne	r3,r2,801cf0 <checkStartAck+0x70>
		com.client_ack = getBit(byte, 3);
  801cc4:	e13ffe03 	ldbu	r4,-8(fp)
  801cc8:	014000c4 	movi	r5,3
  801ccc:	08014cc0 	call	8014cc <getBit>
  801cd0:	1007883a 	mov	r3,r2
  801cd4:	00802074 	movhi	r2,129
  801cd8:	108f3b04 	addi	r2,r2,15596
  801cdc:	10c01315 	stw	r3,76(r2)
		switchAck();
  801ce0:	0801ffc0 	call	801ffc <switchAck>
		return 1;
  801ce4:	00800044 	movi	r2,1
  801ce8:	e0bfff15 	stw	r2,-4(fp)
  801cec:	00000106 	br	801cf4 <checkStartAck+0x74>
	} return 0;
  801cf0:	e03fff15 	stw	zero,-4(fp)
  801cf4:	e0bfff17 	ldw	r2,-4(fp)
}
  801cf8:	e037883a 	mov	sp,fp
  801cfc:	dfc00117 	ldw	ra,4(sp)
  801d00:	df000017 	ldw	fp,0(sp)
  801d04:	dec00204 	addi	sp,sp,8
  801d08:	f800283a 	ret

00801d0c <updateAcknowledge>:

void updateAcknowledge(unsigned char* byte) {
  801d0c:	defffd04 	addi	sp,sp,-12
  801d10:	dfc00215 	stw	ra,8(sp)
  801d14:	df000115 	stw	fp,4(sp)
  801d18:	df000104 	addi	fp,sp,4
  801d1c:	e13fff15 	stw	r4,-4(fp)
	if(com.host_ack == 0)
  801d20:	00802074 	movhi	r2,129
  801d24:	108f3b04 	addi	r2,r2,15596
  801d28:	10801417 	ldw	r2,80(r2)
  801d2c:	1004c03a 	cmpne	r2,r2,zero
  801d30:	1000081e 	bne	r2,zero,801d54 <updateAcknowledge+0x48>
		*byte &= 0xFB; //XXXXX0XX
  801d34:	e0bfff17 	ldw	r2,-4(fp)
  801d38:	10c00003 	ldbu	r3,0(r2)
  801d3c:	00bffec4 	movi	r2,-5
  801d40:	1884703a 	and	r2,r3,r2
  801d44:	1007883a 	mov	r3,r2
  801d48:	e0bfff17 	ldw	r2,-4(fp)
  801d4c:	10c00005 	stb	r3,0(r2)
  801d50:	00000306 	br	801d60 <updateAcknowledge+0x54>
	else
		setBit(byte, 2); //XXXXX1XX
  801d54:	e13fff17 	ldw	r4,-4(fp)
  801d58:	01400084 	movi	r5,2
  801d5c:	08015040 	call	801504 <setBit>
	if(com.client_ack == 0)
  801d60:	00802074 	movhi	r2,129
  801d64:	108f3b04 	addi	r2,r2,15596
  801d68:	10801317 	ldw	r2,76(r2)
  801d6c:	1004c03a 	cmpne	r2,r2,zero
  801d70:	1000081e 	bne	r2,zero,801d94 <updateAcknowledge+0x88>
		*byte &= 0xF7; //XXXX0XXX
  801d74:	e0bfff17 	ldw	r2,-4(fp)
  801d78:	10c00003 	ldbu	r3,0(r2)
  801d7c:	00bffdc4 	movi	r2,-9
  801d80:	1884703a 	and	r2,r3,r2
  801d84:	1007883a 	mov	r3,r2
  801d88:	e0bfff17 	ldw	r2,-4(fp)
  801d8c:	10c00005 	stb	r3,0(r2)
  801d90:	00000306 	br	801da0 <updateAcknowledge+0x94>
	else
		setBit(byte, 3); //XXXX1XXX
  801d94:	e13fff17 	ldw	r4,-4(fp)
  801d98:	014000c4 	movi	r5,3
  801d9c:	08015040 	call	801504 <setBit>
}
  801da0:	e037883a 	mov	sp,fp
  801da4:	dfc00117 	ldw	ra,4(sp)
  801da8:	df000017 	ldw	fp,0(sp)
  801dac:	dec00204 	addi	sp,sp,8
  801db0:	f800283a 	ret

00801db4 <sendStats>:
/*
 * send 3 bytes acknowledge to client at sendStats stage;
 * 1 byte: client_ack + host_ack + receive/send; 2bytes: length of packets if any
 * first byte format: 1111+(client_ack)(host_ack)(send)(receive)
 */
unsigned char* sendStats() {
  801db4:	defffa04 	addi	sp,sp,-24
  801db8:	dfc00515 	stw	ra,20(sp)
  801dbc:	df000415 	stw	fp,16(sp)
  801dc0:	df000404 	addi	fp,sp,16
	unsigned char* cert = (unsigned char*)malloc(sizeof(unsigned char)*3);
  801dc4:	010000c4 	movi	r4,3
  801dc8:	08026900 	call	802690 <malloc>
  801dcc:	e0bffd15 	stw	r2,-12(fp)
	cert[0] = 0xF0; //set the format as 1111+(client_ack)(host_ack)(send)(receive)
  801dd0:	e0fffd17 	ldw	r3,-12(fp)
  801dd4:	00bffc04 	movi	r2,-16
  801dd8:	18800005 	stb	r2,0(r3)
	cert[1] = 0;
  801ddc:	e0bffd17 	ldw	r2,-12(fp)
  801de0:	10800044 	addi	r2,r2,1
  801de4:	10000005 	stb	zero,0(r2)
	cert[2] = 0;
  801de8:	e0bffd17 	ldw	r2,-12(fp)
  801dec:	10800084 	addi	r2,r2,2
  801df0:	10000005 	stb	zero,0(r2)
	int* num_s_packets;

	updateAcknowledge(&cert[0]);
  801df4:	e13ffd17 	ldw	r4,-12(fp)
  801df8:	0801d0c0 	call	801d0c <updateAcknowledge>

	if(com.isRdySend == 1 || com.pendingPacketSize->size > 0) {
  801dfc:	00802074 	movhi	r2,129
  801e00:	108f3b04 	addi	r2,r2,15596
  801e04:	10801517 	ldw	r2,84(r2)
  801e08:	10800060 	cmpeqi	r2,r2,1
  801e0c:	1000061e 	bne	r2,zero,801e28 <sendStats+0x74>
  801e10:	00802074 	movhi	r2,129
  801e14:	108f3b04 	addi	r2,r2,15596
  801e18:	10800f17 	ldw	r2,60(r2)
  801e1c:	10800017 	ldw	r2,0(r2)
  801e20:	10800050 	cmplti	r2,r2,1
  801e24:	1000301e 	bne	r2,zero,801ee8 <sendStats+0x134>
		setStates(waitClient);
  801e28:	01000084 	movi	r4,2
  801e2c:	08021840 	call	802184 <setStates>
		setBit(&cert[0], 1); //1111XX10
  801e30:	e13ffd17 	ldw	r4,-12(fp)
  801e34:	01400044 	movi	r5,1
  801e38:	08015040 	call	801504 <setBit>
		com.index_send_packets = 0;
  801e3c:	00802074 	movhi	r2,129
  801e40:	108f3b04 	addi	r2,r2,15596
  801e44:	10001a15 	stw	zero,104(r2)
		num_s_packets = (int*)dequeue(com.pendingPacketSize);
  801e48:	00802074 	movhi	r2,129
  801e4c:	108f3b04 	addi	r2,r2,15596
  801e50:	11000f17 	ldw	r4,60(r2)
  801e54:	08018a40 	call	8018a4 <dequeue>
  801e58:	e0bffc15 	stw	r2,-16(fp)
		com.num_send_packets = *num_s_packets;
  801e5c:	e0bffc17 	ldw	r2,-16(fp)
  801e60:	10c00017 	ldw	r3,0(r2)
  801e64:	00802074 	movhi	r2,129
  801e68:	108f3b04 	addi	r2,r2,15596
  801e6c:	10c01915 	stw	r3,100(r2)
		cert[1] = (unsigned char)(com.num_send_packets/256);
  801e70:	e0bffd17 	ldw	r2,-12(fp)
  801e74:	10800044 	addi	r2,r2,1
  801e78:	e0bffe15 	stw	r2,-8(fp)
  801e7c:	00802074 	movhi	r2,129
  801e80:	108f3b04 	addi	r2,r2,15596
  801e84:	10801917 	ldw	r2,100(r2)
  801e88:	e0bfff15 	stw	r2,-4(fp)
  801e8c:	e0ffff17 	ldw	r3,-4(fp)
  801e90:	1804403a 	cmpge	r2,r3,zero
  801e94:	1000031e 	bne	r2,zero,801ea4 <sendStats+0xf0>
  801e98:	e0bfff17 	ldw	r2,-4(fp)
  801e9c:	10803fc4 	addi	r2,r2,255
  801ea0:	e0bfff15 	stw	r2,-4(fp)
  801ea4:	e0ffff17 	ldw	r3,-4(fp)
  801ea8:	1805d23a 	srai	r2,r3,8
  801eac:	e0fffe17 	ldw	r3,-8(fp)
  801eb0:	18800005 	stb	r2,0(r3)
		cert[2] = (unsigned char)(com.num_send_packets & 0x00FF);
  801eb4:	e0bffd17 	ldw	r2,-12(fp)
  801eb8:	11000084 	addi	r4,r2,2
  801ebc:	00802074 	movhi	r2,129
  801ec0:	108f3b04 	addi	r2,r2,15596
  801ec4:	10801917 	ldw	r2,100(r2)
  801ec8:	1007883a 	mov	r3,r2
  801ecc:	00bfffc4 	movi	r2,-1
  801ed0:	1884703a 	and	r2,r3,r2
  801ed4:	20800005 	stb	r2,0(r4)
		free(num_s_packets);
  801ed8:	e13ffc17 	ldw	r4,-16(fp)
  801edc:	080267c0 	call	80267c <free>
		num_s_packets = NULL;
  801ee0:	e03ffc15 	stw	zero,-16(fp)
	cert[2] = 0;
	int* num_s_packets;

	updateAcknowledge(&cert[0]);

	if(com.isRdySend == 1 || com.pendingPacketSize->size > 0) {
  801ee4:	00000506 	br	801efc <sendStats+0x148>
		cert[1] = (unsigned char)(com.num_send_packets/256);
		cert[2] = (unsigned char)(com.num_send_packets & 0x00FF);
		free(num_s_packets);
		num_s_packets = NULL;
	} else {
		setStates(checkClient);
  801ee8:	0009883a 	mov	r4,zero
  801eec:	08021840 	call	802184 <setStates>
		setBit(&cert[0], 0); //1111XX01
  801ef0:	e13ffd17 	ldw	r4,-12(fp)
  801ef4:	000b883a 	mov	r5,zero
  801ef8:	08015040 	call	801504 <setBit>
	}
	return cert;
  801efc:	e0bffd17 	ldw	r2,-12(fp)
}
  801f00:	e037883a 	mov	sp,fp
  801f04:	dfc00117 	ldw	ra,4(sp)
  801f08:	df000017 	ldw	fp,0(sp)
  801f0c:	dec00204 	addi	sp,sp,8
  801f10:	f800283a 	ret

00801f14 <sendAck>:

unsigned char* sendAck() {
  801f14:	defffc04 	addi	sp,sp,-16
  801f18:	dfc00315 	stw	ra,12(sp)
  801f1c:	df000215 	stw	fp,8(sp)
  801f20:	df000204 	addi	fp,sp,8
	unsigned char* cert = (unsigned char*)malloc(sizeof(unsigned char)*3);
  801f24:	010000c4 	movi	r4,3
  801f28:	08026900 	call	802690 <malloc>
  801f2c:	e0bfff15 	stw	r2,-4(fp)
	if(cert == NULL) {
  801f30:	e0bfff17 	ldw	r2,-4(fp)
  801f34:	1004c03a 	cmpne	r2,r2,zero
  801f38:	1000031e 	bne	r2,zero,801f48 <sendAck+0x34>
		printf("NO MEMORY to send ack!!\n");
  801f3c:	01002074 	movhi	r4,129
  801f40:	213fb404 	addi	r4,r4,-304
  801f44:	0802f9c0 	call	802f9c <puts>
	}
	cert[0] = 0xF0; //set the format as 1111+(client_ack)(host_ack)(send)(receive)
  801f48:	e0ffff17 	ldw	r3,-4(fp)
  801f4c:	00bffc04 	movi	r2,-16
  801f50:	18800005 	stb	r2,0(r3)
	cert[1] = 0;
  801f54:	e0bfff17 	ldw	r2,-4(fp)
  801f58:	10800044 	addi	r2,r2,1
  801f5c:	10000005 	stb	zero,0(r2)
	cert[2] = 0;
  801f60:	e0bfff17 	ldw	r2,-4(fp)
  801f64:	10800084 	addi	r2,r2,2
  801f68:	10000005 	stb	zero,0(r2)

	updateAcknowledge(&cert[0]);
  801f6c:	e13fff17 	ldw	r4,-4(fp)
  801f70:	0801d0c0 	call	801d0c <updateAcknowledge>

	setBit(&cert[0], 0); //1111XX01
  801f74:	e13fff17 	ldw	r4,-4(fp)
  801f78:	000b883a 	mov	r5,zero
  801f7c:	08015040 	call	801504 <setBit>

	char* temp; //need to do something with this later

	if(com.index_packets >= com.num_packets) { //all packets received
  801f80:	00802074 	movhi	r2,129
  801f84:	108f3b04 	addi	r2,r2,15596
  801f88:	10c01817 	ldw	r3,96(r2)
  801f8c:	00802074 	movhi	r2,129
  801f90:	108f3b04 	addi	r2,r2,15596
  801f94:	10801717 	ldw	r2,92(r2)
  801f98:	18801016 	blt	r3,r2,801fdc <sendAck+0xc8>
		setStates(checkClient);
  801f9c:	0009883a 	mov	r4,zero
  801fa0:	08021840 	call	802184 <setStates>
		com.index_packets = 0;
  801fa4:	00802074 	movhi	r2,129
  801fa8:	108f3b04 	addi	r2,r2,15596
  801fac:	10001815 	stw	zero,96(r2)

		//call decode & command here later
		temp = (char*)decode(com.receivePackets);
  801fb0:	00802074 	movhi	r2,129
  801fb4:	108f3b04 	addi	r2,r2,15596
  801fb8:	11000e17 	ldw	r4,56(r2)
  801fbc:	08003c80 	call	8003c8 <decode>
  801fc0:	e0bffe15 	stw	r2,-8(fp)
		printf("%s\n", temp);
  801fc4:	e13ffe17 	ldw	r4,-8(fp)
  801fc8:	0802f9c0 	call	802f9c <puts>
		free(temp);
  801fcc:	e13ffe17 	ldw	r4,-8(fp)
  801fd0:	080267c0 	call	80267c <free>
		temp = NULL;
  801fd4:	e03ffe15 	stw	zero,-8(fp)
  801fd8:	00000206 	br	801fe4 <sendAck+0xd0>
	} else
		setStates(receiveData0);
  801fdc:	01000204 	movi	r4,8
  801fe0:	08021840 	call	802184 <setStates>
	return cert;
  801fe4:	e0bfff17 	ldw	r2,-4(fp)
}
  801fe8:	e037883a 	mov	sp,fp
  801fec:	dfc00117 	ldw	ra,4(sp)
  801ff0:	df000017 	ldw	fp,0(sp)
  801ff4:	dec00204 	addi	sp,sp,8
  801ff8:	f800283a 	ret

00801ffc <switchAck>:
void switchAck() {
  801ffc:	deffff04 	addi	sp,sp,-4
  802000:	df000015 	stw	fp,0(sp)
  802004:	d839883a 	mov	fp,sp
	com.host_ack = (com.host_ack == 0) ? 1 : 0;
  802008:	00802074 	movhi	r2,129
  80200c:	108f3b04 	addi	r2,r2,15596
  802010:	10801417 	ldw	r2,80(r2)
  802014:	1007003a 	cmpeq	r3,r2,zero
  802018:	00802074 	movhi	r2,129
  80201c:	108f3b04 	addi	r2,r2,15596
  802020:	10c01415 	stw	r3,80(r2)
}
  802024:	e037883a 	mov	sp,fp
  802028:	df000017 	ldw	fp,0(sp)
  80202c:	dec00104 	addi	sp,sp,4
  802030:	f800283a 	ret

00802034 <checkAck>:
/*
 * check if the acknowledge byte is valid
 */
int checkAck(unsigned char* bytes) {
  802034:	defffb04 	addi	sp,sp,-20
  802038:	dfc00415 	stw	ra,16(sp)
  80203c:	df000315 	stw	fp,12(sp)
  802040:	dc000215 	stw	r16,8(sp)
  802044:	df000204 	addi	fp,sp,8
  802048:	e13ffe15 	stw	r4,-8(fp)
	if(((bytes[0] & 0xF0) == 0xF0) & (getBit(bytes[0], 2) == com.host_ack)) {
  80204c:	e0bffe17 	ldw	r2,-8(fp)
  802050:	10800003 	ldbu	r2,0(r2)
  802054:	10803fcc 	andi	r2,r2,255
  802058:	10803c0c 	andi	r2,r2,240
  80205c:	10803c20 	cmpeqi	r2,r2,240
  802060:	1021883a 	mov	r16,r2
  802064:	e0bffe17 	ldw	r2,-8(fp)
  802068:	10800003 	ldbu	r2,0(r2)
  80206c:	11003fcc 	andi	r4,r2,255
  802070:	01400084 	movi	r5,2
  802074:	08014cc0 	call	8014cc <getBit>
  802078:	1007883a 	mov	r3,r2
  80207c:	00802074 	movhi	r2,129
  802080:	108f3b04 	addi	r2,r2,15596
  802084:	10801417 	ldw	r2,80(r2)
  802088:	1885003a 	cmpeq	r2,r3,r2
  80208c:	8084703a 	and	r2,r16,r2
  802090:	10803fcc 	andi	r2,r2,255
  802094:	1005003a 	cmpeq	r2,r2,zero
  802098:	1000101e 	bne	r2,zero,8020dc <checkAck+0xa8>
		com.client_ack = getBit(bytes[0], 3);
  80209c:	e0bffe17 	ldw	r2,-8(fp)
  8020a0:	10800003 	ldbu	r2,0(r2)
  8020a4:	11003fcc 	andi	r4,r2,255
  8020a8:	014000c4 	movi	r5,3
  8020ac:	08014cc0 	call	8014cc <getBit>
  8020b0:	1007883a 	mov	r3,r2
  8020b4:	00802074 	movhi	r2,129
  8020b8:	108f3b04 	addi	r2,r2,15596
  8020bc:	10c01315 	stw	r3,76(r2)
		switchAck(); //very important to switch ack for next ack
  8020c0:	0801ffc0 	call	801ffc <switchAck>
		com.failReceive = 0;
  8020c4:	00802074 	movhi	r2,129
  8020c8:	108f3b04 	addi	r2,r2,15596
  8020cc:	10001615 	stw	zero,88(r2)
		return 1;
  8020d0:	00800044 	movi	r2,1
  8020d4:	e0bfff15 	stw	r2,-4(fp)
  8020d8:	00000806 	br	8020fc <checkAck+0xc8>
	} com.failReceive++;
  8020dc:	00802074 	movhi	r2,129
  8020e0:	108f3b04 	addi	r2,r2,15596
  8020e4:	10801617 	ldw	r2,88(r2)
  8020e8:	10c00044 	addi	r3,r2,1
  8020ec:	00802074 	movhi	r2,129
  8020f0:	108f3b04 	addi	r2,r2,15596
  8020f4:	10c01615 	stw	r3,88(r2)
	return 0;
  8020f8:	e03fff15 	stw	zero,-4(fp)
  8020fc:	e0bfff17 	ldw	r2,-4(fp)
}
  802100:	e037883a 	mov	sp,fp
  802104:	dfc00217 	ldw	ra,8(sp)
  802108:	df000117 	ldw	fp,4(sp)
  80210c:	dc000017 	ldw	r16,0(sp)
  802110:	dec00304 	addi	sp,sp,12
  802114:	f800283a 	ret

00802118 <failReceive>:

/*
* increment the frequency of failing receive data;
* go back to past state if it has already fail receiving 100 times
*/
void failReceive(enum States pastState) {
  802118:	defffd04 	addi	sp,sp,-12
  80211c:	dfc00215 	stw	ra,8(sp)
  802120:	df000115 	stw	fp,4(sp)
  802124:	df000104 	addi	fp,sp,4
  802128:	e13fff15 	stw	r4,-4(fp)
	com.failReceive++;
  80212c:	00802074 	movhi	r2,129
  802130:	108f3b04 	addi	r2,r2,15596
  802134:	10801617 	ldw	r2,88(r2)
  802138:	10c00044 	addi	r3,r2,1
  80213c:	00802074 	movhi	r2,129
  802140:	108f3b04 	addi	r2,r2,15596
  802144:	10c01615 	stw	r3,88(r2)
	if(com.failReceive > 100) {
  802148:	00802074 	movhi	r2,129
  80214c:	108f3b04 	addi	r2,r2,15596
  802150:	10801617 	ldw	r2,88(r2)
  802154:	10801950 	cmplti	r2,r2,101
  802158:	1000051e 	bne	r2,zero,802170 <failReceive+0x58>
		setStates(pastState);
  80215c:	e13fff17 	ldw	r4,-4(fp)
  802160:	08021840 	call	802184 <setStates>
		com.failReceive=0;
  802164:	00802074 	movhi	r2,129
  802168:	108f3b04 	addi	r2,r2,15596
  80216c:	10001615 	stw	zero,88(r2)
	}
}
  802170:	e037883a 	mov	sp,fp
  802174:	dfc00117 	ldw	ra,4(sp)
  802178:	df000017 	ldw	fp,0(sp)
  80217c:	dec00204 	addi	sp,sp,8
  802180:	f800283a 	ret

00802184 <setStates>:

void setStates(enum States s) {
  802184:	defffe04 	addi	sp,sp,-8
  802188:	df000115 	stw	fp,4(sp)
  80218c:	df000104 	addi	fp,sp,4
  802190:	e13fff15 	stw	r4,-4(fp)
	*(com.pastState) = *(com.stateMachine);
  802194:	00802074 	movhi	r2,129
  802198:	108f3b04 	addi	r2,r2,15596
  80219c:	10c01217 	ldw	r3,72(r2)
  8021a0:	00802074 	movhi	r2,129
  8021a4:	108f3b04 	addi	r2,r2,15596
  8021a8:	10801117 	ldw	r2,68(r2)
  8021ac:	10800017 	ldw	r2,0(r2)
  8021b0:	18800015 	stw	r2,0(r3)
	*(com.stateMachine) = s;
  8021b4:	00802074 	movhi	r2,129
  8021b8:	108f3b04 	addi	r2,r2,15596
  8021bc:	10c01117 	ldw	r3,68(r2)
  8021c0:	e0bfff17 	ldw	r2,-4(fp)
  8021c4:	18800015 	stw	r2,0(r3)
	//printf("past state: %d\n", *(com.pastState));
	//printf("current state: %d\n", *(com.stateMachine));
}
  8021c8:	e037883a 	mov	sp,fp
  8021cc:	df000017 	ldw	fp,0(sp)
  8021d0:	dec00104 	addi	sp,sp,4
  8021d4:	f800283a 	ret

008021d8 <reset>:
/*
 * Reset the RS232 communication to initial state
 */
void reset(alt_up_rs232_dev *serial_dev) {
  8021d8:	defffb04 	addi	sp,sp,-20
  8021dc:	dfc00415 	stw	ra,16(sp)
  8021e0:	df000315 	stw	fp,12(sp)
  8021e4:	df000304 	addi	fp,sp,12
  8021e8:	e13fff15 	stw	r4,-4(fp)
	printf("Starting reseting connection\n");
  8021ec:	01002074 	movhi	r4,129
  8021f0:	213fba04 	addi	r4,r4,-280
  8021f4:	0802f9c0 	call	802f9c <puts>
	com.client_ack = com.host_ack = 0;
  8021f8:	00802074 	movhi	r2,129
  8021fc:	108f3b04 	addi	r2,r2,15596
  802200:	10001415 	stw	zero,80(r2)
  802204:	00802074 	movhi	r2,129
  802208:	108f3b04 	addi	r2,r2,15596
  80220c:	10c01417 	ldw	r3,80(r2)
  802210:	00802074 	movhi	r2,129
  802214:	108f3b04 	addi	r2,r2,15596
  802218:	10c01315 	stw	r3,76(r2)
	com.failReceive = com.isRdySend = 0;
  80221c:	00802074 	movhi	r2,129
  802220:	108f3b04 	addi	r2,r2,15596
  802224:	10001515 	stw	zero,84(r2)
  802228:	00802074 	movhi	r2,129
  80222c:	108f3b04 	addi	r2,r2,15596
  802230:	10c01517 	ldw	r3,84(r2)
  802234:	00802074 	movhi	r2,129
  802238:	108f3b04 	addi	r2,r2,15596
  80223c:	10c01615 	stw	r3,88(r2)
	com.num_packets = com.num_send_packets = 0;
  802240:	00802074 	movhi	r2,129
  802244:	108f3b04 	addi	r2,r2,15596
  802248:	10001915 	stw	zero,100(r2)
  80224c:	00802074 	movhi	r2,129
  802250:	108f3b04 	addi	r2,r2,15596
  802254:	10c01917 	ldw	r3,100(r2)
  802258:	00802074 	movhi	r2,129
  80225c:	108f3b04 	addi	r2,r2,15596
  802260:	10c01715 	stw	r3,92(r2)
	com.index_packets = com.index_send_packets = 0;
  802264:	00802074 	movhi	r2,129
  802268:	108f3b04 	addi	r2,r2,15596
  80226c:	10001a15 	stw	zero,104(r2)
  802270:	00802074 	movhi	r2,129
  802274:	108f3b04 	addi	r2,r2,15596
  802278:	10c01a17 	ldw	r3,104(r2)
  80227c:	00802074 	movhi	r2,129
  802280:	108f3b04 	addi	r2,r2,15596
  802284:	10c01815 	stw	r3,96(r2)

	struct Packet* p = NULL;
  802288:	e03ffe15 	stw	zero,-8(fp)
	int* len;
	while(com.sendPackets->size > 0) {
  80228c:	00000706 	br	8022ac <reset+0xd4>
		p = (struct Packet*)dequeue(com.sendPackets);
  802290:	00802074 	movhi	r2,129
  802294:	108f3b04 	addi	r2,r2,15596
  802298:	11000d17 	ldw	r4,52(r2)
  80229c:	08018a40 	call	8018a4 <dequeue>
  8022a0:	e0bffe15 	stw	r2,-8(fp)
		killPacket(&p);
  8022a4:	e13ffe04 	addi	r4,fp,-8
  8022a8:	08011240 	call	801124 <killPacket>
	com.num_packets = com.num_send_packets = 0;
	com.index_packets = com.index_send_packets = 0;

	struct Packet* p = NULL;
	int* len;
	while(com.sendPackets->size > 0) {
  8022ac:	00802074 	movhi	r2,129
  8022b0:	108f3b04 	addi	r2,r2,15596
  8022b4:	10800d17 	ldw	r2,52(r2)
  8022b8:	10800017 	ldw	r2,0(r2)
  8022bc:	10800048 	cmpgei	r2,r2,1
  8022c0:	103ff31e 	bne	r2,zero,802290 <reset+0xb8>
		p = (struct Packet*)dequeue(com.sendPackets);
		killPacket(&p);
	}

	while(com.receivePackets->size > 0) {
  8022c4:	00000706 	br	8022e4 <reset+0x10c>
		p = (struct Packet*)dequeue(com.receivePackets);
  8022c8:	00802074 	movhi	r2,129
  8022cc:	108f3b04 	addi	r2,r2,15596
  8022d0:	11000e17 	ldw	r4,56(r2)
  8022d4:	08018a40 	call	8018a4 <dequeue>
  8022d8:	e0bffe15 	stw	r2,-8(fp)
		killPacket(&p);
  8022dc:	e13ffe04 	addi	r4,fp,-8
  8022e0:	08011240 	call	801124 <killPacket>
	while(com.sendPackets->size > 0) {
		p = (struct Packet*)dequeue(com.sendPackets);
		killPacket(&p);
	}

	while(com.receivePackets->size > 0) {
  8022e4:	00802074 	movhi	r2,129
  8022e8:	108f3b04 	addi	r2,r2,15596
  8022ec:	10800e17 	ldw	r2,56(r2)
  8022f0:	10800017 	ldw	r2,0(r2)
  8022f4:	10800048 	cmpgei	r2,r2,1
  8022f8:	103ff31e 	bne	r2,zero,8022c8 <reset+0xf0>
		p = (struct Packet*)dequeue(com.receivePackets);
		killPacket(&p);
	}

	while(com.pendingPacketSize->size > 0) {
  8022fc:	00000806 	br	802320 <reset+0x148>
		len = (int*)dequeue(com.pendingPacketSize);
  802300:	00802074 	movhi	r2,129
  802304:	108f3b04 	addi	r2,r2,15596
  802308:	11000f17 	ldw	r4,60(r2)
  80230c:	08018a40 	call	8018a4 <dequeue>
  802310:	e0bffd15 	stw	r2,-12(fp)
		free(len);
  802314:	e13ffd17 	ldw	r4,-12(fp)
  802318:	080267c0 	call	80267c <free>
		len = NULL;
  80231c:	e03ffd15 	stw	zero,-12(fp)
	while(com.receivePackets->size > 0) {
		p = (struct Packet*)dequeue(com.receivePackets);
		killPacket(&p);
	}

	while(com.pendingPacketSize->size > 0) {
  802320:	00802074 	movhi	r2,129
  802324:	108f3b04 	addi	r2,r2,15596
  802328:	10800f17 	ldw	r2,60(r2)
  80232c:	10800017 	ldw	r2,0(r2)
  802330:	10800048 	cmpgei	r2,r2,1
  802334:	103ff21e 	bne	r2,zero,802300 <reset+0x128>
		len = (int*)dequeue(com.pendingPacketSize);
		free(len);
		len = NULL;
	}
	if(&com.packetBuf != NULL) {
		free(com.packetBuf);
  802338:	00802074 	movhi	r2,129
  80233c:	108f3b04 	addi	r2,r2,15596
  802340:	11001017 	ldw	r4,64(r2)
  802344:	080267c0 	call	80267c <free>
		com.packetBuf = NULL;
  802348:	00802074 	movhi	r2,129
  80234c:	108f3b04 	addi	r2,r2,15596
  802350:	10001015 	stw	zero,64(r2)
	}
	while (alt_up_rs232_get_used_space_in_read_FIFO(serial_dev) != 0);
  802354:	e13fff17 	ldw	r4,-4(fp)
  802358:	080e7d00 	call	80e7d0 <alt_up_rs232_get_used_space_in_read_FIFO>
  80235c:	1004c03a 	cmpne	r2,r2,zero
  802360:	103ffc1e 	bne	r2,zero,802354 <reset+0x17c>
	alt_up_rs232_read_data(serial_dev, &com.data[0], &com.parity);
  802364:	e13fff17 	ldw	r4,-4(fp)
  802368:	01402074 	movhi	r5,129
  80236c:	294f3b04 	addi	r5,r5,15596
  802370:	01802074 	movhi	r6,129
  802374:	318f4784 	addi	r6,r6,15646
  802378:	080e8e40 	call	80e8e4 <alt_up_rs232_read_data>
	setStates(startInit);
  80237c:	01000244 	movi	r4,9
  802380:	08021840 	call	802184 <setStates>
	printf("WARNNING!! the connection has been reseted.\n");
  802384:	01002074 	movhi	r4,129
  802388:	213fc204 	addi	r4,r4,-248
  80238c:	0802f9c0 	call	802f9c <puts>
}
  802390:	e037883a 	mov	sp,fp
  802394:	dfc00117 	ldw	ra,4(sp)
  802398:	df000017 	ldw	fp,0(sp)
  80239c:	dec00204 	addi	sp,sp,8
  8023a0:	f800283a 	ret

008023a4 <sendRS232>:
/*
 * Send sequence of bytes to serial port
 */
void sendRS232(alt_up_rs232_dev *serial_dev, unsigned char* bytes, int size) {
  8023a4:	defffa04 	addi	sp,sp,-24
  8023a8:	dfc00515 	stw	ra,20(sp)
  8023ac:	df000415 	stw	fp,16(sp)
  8023b0:	df000404 	addi	fp,sp,16
  8023b4:	e13ffd15 	stw	r4,-12(fp)
  8023b8:	e17ffe15 	stw	r5,-8(fp)
  8023bc:	e1bfff15 	stw	r6,-4(fp)
	int i;
	for(i = 0; i < size; i++) {
  8023c0:	e03ffc15 	stw	zero,-16(fp)
  8023c4:	00000b06 	br	8023f4 <sendRS232+0x50>
		alt_up_rs232_write_data(serial_dev, bytes[i]);
  8023c8:	e0bffc17 	ldw	r2,-16(fp)
  8023cc:	1007883a 	mov	r3,r2
  8023d0:	e0bffe17 	ldw	r2,-8(fp)
  8023d4:	1885883a 	add	r2,r3,r2
  8023d8:	10800003 	ldbu	r2,0(r2)
  8023dc:	11403fcc 	andi	r5,r2,255
  8023e0:	e13ffd17 	ldw	r4,-12(fp)
  8023e4:	080e89c0 	call	80e89c <alt_up_rs232_write_data>
/*
 * Send sequence of bytes to serial port
 */
void sendRS232(alt_up_rs232_dev *serial_dev, unsigned char* bytes, int size) {
	int i;
	for(i = 0; i < size; i++) {
  8023e8:	e0bffc17 	ldw	r2,-16(fp)
  8023ec:	10800044 	addi	r2,r2,1
  8023f0:	e0bffc15 	stw	r2,-16(fp)
  8023f4:	e0fffc17 	ldw	r3,-16(fp)
  8023f8:	e0bfff17 	ldw	r2,-4(fp)
  8023fc:	18bff216 	blt	r3,r2,8023c8 <sendRS232+0x24>
		alt_up_rs232_write_data(serial_dev, bytes[i]);
	}
}
  802400:	e037883a 	mov	sp,fp
  802404:	dfc00117 	ldw	ra,4(sp)
  802408:	df000017 	ldw	fp,0(sp)
  80240c:	dec00204 	addi	sp,sp,8
  802410:	f800283a 	ret

00802414 <main>:
#include "Global.h"

int main()
{
  802414:	deffde04 	addi	sp,sp,-136
  802418:	dfc02115 	stw	ra,132(sp)
  80241c:	df002015 	stw	fp,128(sp)
  802420:	dc001f15 	stw	r16,124(sp)
  802424:	df001f04 	addi	fp,sp,124
	com = initRS232();
  802428:	04002074 	movhi	r16,129
  80242c:	840f3b04 	addi	r16,r16,15596
  802430:	e13fe504 	addi	r4,fp,-108
  802434:	0801a140 	call	801a14 <initRS232>
  802438:	8009883a 	mov	r4,r16
  80243c:	e17fe504 	addi	r5,fp,-108
  802440:	01801b04 	movi	r6,108
  802444:	0802de40 	call	802de4 <memcpy>
	char* temp = "Constructs a new String by decoding the specified subarray of bytes using the specified charset. The length of the new String is a function of the charset, and hence may not be equal to the length of the subarray. ";
  802448:	00802074 	movhi	r2,129
  80244c:	10bfcd04 	addi	r2,r2,-204
  802450:	e0bfe415 	stw	r2,-112(fp)
	char* temp1 = "this is a testing message";
  802454:	00802074 	movhi	r2,129
  802458:	10800304 	addi	r2,r2,12
  80245c:	e0bfe315 	stw	r2,-116(fp)
	char* temp2 = "I hate debugging and testing";
  802460:	00802074 	movhi	r2,129
  802464:	10800a04 	addi	r2,r2,40
  802468:	e0bfe215 	stw	r2,-120(fp)
	int i;
	for(i = 0; i < 39999999; i++) {}
  80246c:	e03fe115 	stw	zero,-124(fp)
  802470:	00000306 	br	802480 <main+0x6c>
  802474:	e0bfe117 	ldw	r2,-124(fp)
  802478:	10800044 	addi	r2,r2,1
  80247c:	e0bfe115 	stw	r2,-124(fp)
  802480:	e0ffe117 	ldw	r3,-124(fp)
  802484:	008098b4 	movhi	r2,610
  802488:	10967f84 	addi	r2,r2,23038
  80248c:	10fff90e 	bge	r2,r3,802474 <main+0x60>
	send((void*)temp1, STRING);
  802490:	e13fe317 	ldw	r4,-116(fp)
  802494:	000b883a 	mov	r5,zero
  802498:	0801b540 	call	801b54 <send>

	while(1) {
		for(i = 0; i < 9999999; i++) {}
  80249c:	e03fe115 	stw	zero,-124(fp)
  8024a0:	00000306 	br	8024b0 <main+0x9c>
  8024a4:	e0bfe117 	ldw	r2,-124(fp)
  8024a8:	10800044 	addi	r2,r2,1
  8024ac:	e0bfe115 	stw	r2,-124(fp)
  8024b0:	e0ffe117 	ldw	r3,-124(fp)
  8024b4:	00802674 	movhi	r2,153
  8024b8:	10a59f84 	addi	r2,r2,-27010
  8024bc:	10fff90e 	bge	r2,r3,8024a4 <main+0x90>
		send((void*)temp2, STRING);
  8024c0:	e13fe217 	ldw	r4,-120(fp)
  8024c4:	000b883a 	mov	r5,zero
  8024c8:	0801b540 	call	801b54 <send>
		for(i = 0; i < 9999999; i++) {}
  8024cc:	e03fe115 	stw	zero,-124(fp)
  8024d0:	00000306 	br	8024e0 <main+0xcc>
  8024d4:	e0bfe117 	ldw	r2,-124(fp)
  8024d8:	10800044 	addi	r2,r2,1
  8024dc:	e0bfe115 	stw	r2,-124(fp)
  8024e0:	e0ffe117 	ldw	r3,-124(fp)
  8024e4:	00802674 	movhi	r2,153
  8024e8:	10a59f84 	addi	r2,r2,-27010
  8024ec:	10fff90e 	bge	r2,r3,8024d4 <main+0xc0>
		send((void*)temp, STRING);
  8024f0:	e13fe417 	ldw	r4,-112(fp)
  8024f4:	000b883a 	mov	r5,zero
  8024f8:	0801b540 	call	801b54 <send>
		for(i = 0; i < 9999999; i++) {}
  8024fc:	e03fe115 	stw	zero,-124(fp)
  802500:	00000306 	br	802510 <main+0xfc>
  802504:	e0bfe117 	ldw	r2,-124(fp)
  802508:	10800044 	addi	r2,r2,1
  80250c:	e0bfe115 	stw	r2,-124(fp)
  802510:	e0ffe117 	ldw	r3,-124(fp)
  802514:	00802674 	movhi	r2,153
  802518:	10a59f84 	addi	r2,r2,-27010
  80251c:	10fff90e 	bge	r2,r3,802504 <main+0xf0>
		send((void*)temp1, STRING);
  802520:	e13fe317 	ldw	r4,-116(fp)
  802524:	000b883a 	mov	r5,zero
  802528:	0801b540 	call	801b54 <send>
	//	usleep(100000);
	//	printf("%s\n", com.data);
	}
  80252c:	003fdb06 	br	80249c <main+0x88>

00802530 <udivmodsi4>:
  802530:	29001b2e 	bgeu	r5,r4,8025a0 <udivmodsi4+0x70>
  802534:	28001a16 	blt	r5,zero,8025a0 <udivmodsi4+0x70>
  802538:	00800044 	movi	r2,1
  80253c:	0007883a 	mov	r3,zero
  802540:	01c007c4 	movi	r7,31
  802544:	00000306 	br	802554 <udivmodsi4+0x24>
  802548:	19c01326 	beq	r3,r7,802598 <udivmodsi4+0x68>
  80254c:	18c00044 	addi	r3,r3,1
  802550:	28000416 	blt	r5,zero,802564 <udivmodsi4+0x34>
  802554:	294b883a 	add	r5,r5,r5
  802558:	1085883a 	add	r2,r2,r2
  80255c:	293ffa36 	bltu	r5,r4,802548 <udivmodsi4+0x18>
  802560:	10000d26 	beq	r2,zero,802598 <udivmodsi4+0x68>
  802564:	0007883a 	mov	r3,zero
  802568:	21400236 	bltu	r4,r5,802574 <udivmodsi4+0x44>
  80256c:	2149c83a 	sub	r4,r4,r5
  802570:	1886b03a 	or	r3,r3,r2
  802574:	1004d07a 	srli	r2,r2,1
  802578:	280ad07a 	srli	r5,r5,1
  80257c:	103ffa1e 	bne	r2,zero,802568 <udivmodsi4+0x38>
  802580:	30000226 	beq	r6,zero,80258c <udivmodsi4+0x5c>
  802584:	2005883a 	mov	r2,r4
  802588:	f800283a 	ret
  80258c:	1809883a 	mov	r4,r3
  802590:	2005883a 	mov	r2,r4
  802594:	f800283a 	ret
  802598:	0007883a 	mov	r3,zero
  80259c:	003ff806 	br	802580 <udivmodsi4+0x50>
  8025a0:	00800044 	movi	r2,1
  8025a4:	0007883a 	mov	r3,zero
  8025a8:	003fef06 	br	802568 <udivmodsi4+0x38>

008025ac <__divsi3>:
  8025ac:	defffe04 	addi	sp,sp,-8
  8025b0:	dc000015 	stw	r16,0(sp)
  8025b4:	dfc00115 	stw	ra,4(sp)
  8025b8:	0021883a 	mov	r16,zero
  8025bc:	20000c16 	blt	r4,zero,8025f0 <__divsi3+0x44>
  8025c0:	000d883a 	mov	r6,zero
  8025c4:	28000e16 	blt	r5,zero,802600 <__divsi3+0x54>
  8025c8:	08025300 	call	802530 <udivmodsi4>
  8025cc:	1007883a 	mov	r3,r2
  8025d0:	8005003a 	cmpeq	r2,r16,zero
  8025d4:	1000011e 	bne	r2,zero,8025dc <__divsi3+0x30>
  8025d8:	00c7c83a 	sub	r3,zero,r3
  8025dc:	1805883a 	mov	r2,r3
  8025e0:	dfc00117 	ldw	ra,4(sp)
  8025e4:	dc000017 	ldw	r16,0(sp)
  8025e8:	dec00204 	addi	sp,sp,8
  8025ec:	f800283a 	ret
  8025f0:	0109c83a 	sub	r4,zero,r4
  8025f4:	04000044 	movi	r16,1
  8025f8:	000d883a 	mov	r6,zero
  8025fc:	283ff20e 	bge	r5,zero,8025c8 <__divsi3+0x1c>
  802600:	014bc83a 	sub	r5,zero,r5
  802604:	8021003a 	cmpeq	r16,r16,zero
  802608:	003fef06 	br	8025c8 <__divsi3+0x1c>

0080260c <__modsi3>:
  80260c:	deffff04 	addi	sp,sp,-4
  802610:	dfc00015 	stw	ra,0(sp)
  802614:	01800044 	movi	r6,1
  802618:	2807883a 	mov	r3,r5
  80261c:	20000416 	blt	r4,zero,802630 <__modsi3+0x24>
  802620:	28000c16 	blt	r5,zero,802654 <__modsi3+0x48>
  802624:	dfc00017 	ldw	ra,0(sp)
  802628:	dec00104 	addi	sp,sp,4
  80262c:	08025301 	jmpi	802530 <udivmodsi4>
  802630:	0109c83a 	sub	r4,zero,r4
  802634:	28000b16 	blt	r5,zero,802664 <__modsi3+0x58>
  802638:	180b883a 	mov	r5,r3
  80263c:	01800044 	movi	r6,1
  802640:	08025300 	call	802530 <udivmodsi4>
  802644:	0085c83a 	sub	r2,zero,r2
  802648:	dfc00017 	ldw	ra,0(sp)
  80264c:	dec00104 	addi	sp,sp,4
  802650:	f800283a 	ret
  802654:	014bc83a 	sub	r5,zero,r5
  802658:	dfc00017 	ldw	ra,0(sp)
  80265c:	dec00104 	addi	sp,sp,4
  802660:	08025301 	jmpi	802530 <udivmodsi4>
  802664:	0147c83a 	sub	r3,zero,r5
  802668:	003ff306 	br	802638 <__modsi3+0x2c>

0080266c <__udivsi3>:
  80266c:	000d883a 	mov	r6,zero
  802670:	08025301 	jmpi	802530 <udivmodsi4>

00802674 <__umodsi3>:
  802674:	01800044 	movi	r6,1
  802678:	08025301 	jmpi	802530 <udivmodsi4>

0080267c <free>:
  80267c:	00802074 	movhi	r2,129
  802680:	10880c04 	addi	r2,r2,8240
  802684:	200b883a 	mov	r5,r4
  802688:	11000017 	ldw	r4,0(r2)
  80268c:	08075ac1 	jmpi	8075ac <_free_r>

00802690 <malloc>:
  802690:	00802074 	movhi	r2,129
  802694:	10880c04 	addi	r2,r2,8240
  802698:	200b883a 	mov	r5,r4
  80269c:	11000017 	ldw	r4,0(r2)
  8026a0:	08026a41 	jmpi	8026a4 <_malloc_r>

008026a4 <_malloc_r>:
  8026a4:	defff604 	addi	sp,sp,-40
  8026a8:	28c002c4 	addi	r3,r5,11
  8026ac:	00800584 	movi	r2,22
  8026b0:	dc800215 	stw	r18,8(sp)
  8026b4:	dfc00915 	stw	ra,36(sp)
  8026b8:	df000815 	stw	fp,32(sp)
  8026bc:	ddc00715 	stw	r23,28(sp)
  8026c0:	dd800615 	stw	r22,24(sp)
  8026c4:	dd400515 	stw	r21,20(sp)
  8026c8:	dd000415 	stw	r20,16(sp)
  8026cc:	dcc00315 	stw	r19,12(sp)
  8026d0:	dc400115 	stw	r17,4(sp)
  8026d4:	dc000015 	stw	r16,0(sp)
  8026d8:	2025883a 	mov	r18,r4
  8026dc:	10c01236 	bltu	r2,r3,802728 <_malloc_r+0x84>
  8026e0:	04400404 	movi	r17,16
  8026e4:	8940142e 	bgeu	r17,r5,802738 <_malloc_r+0x94>
  8026e8:	00800304 	movi	r2,12
  8026ec:	0007883a 	mov	r3,zero
  8026f0:	90800015 	stw	r2,0(r18)
  8026f4:	1805883a 	mov	r2,r3
  8026f8:	dfc00917 	ldw	ra,36(sp)
  8026fc:	df000817 	ldw	fp,32(sp)
  802700:	ddc00717 	ldw	r23,28(sp)
  802704:	dd800617 	ldw	r22,24(sp)
  802708:	dd400517 	ldw	r21,20(sp)
  80270c:	dd000417 	ldw	r20,16(sp)
  802710:	dcc00317 	ldw	r19,12(sp)
  802714:	dc800217 	ldw	r18,8(sp)
  802718:	dc400117 	ldw	r17,4(sp)
  80271c:	dc000017 	ldw	r16,0(sp)
  802720:	dec00a04 	addi	sp,sp,40
  802724:	f800283a 	ret
  802728:	00bffe04 	movi	r2,-8
  80272c:	18a2703a 	and	r17,r3,r2
  802730:	883fed16 	blt	r17,zero,8026e8 <_malloc_r+0x44>
  802734:	897fec36 	bltu	r17,r5,8026e8 <_malloc_r+0x44>
  802738:	9009883a 	mov	r4,r18
  80273c:	080c54c0 	call	80c54c <__malloc_lock>
  802740:	00807dc4 	movi	r2,503
  802744:	14402b2e 	bgeu	r2,r17,8027f4 <_malloc_r+0x150>
  802748:	8806d27a 	srli	r3,r17,9
  80274c:	18003f1e 	bne	r3,zero,80284c <_malloc_r+0x1a8>
  802750:	880cd0fa 	srli	r6,r17,3
  802754:	300490fa 	slli	r2,r6,3
  802758:	02c02074 	movhi	r11,129
  80275c:	5ac11504 	addi	r11,r11,1108
  802760:	12cb883a 	add	r5,r2,r11
  802764:	2c000317 	ldw	r16,12(r5)
  802768:	580f883a 	mov	r7,r11
  80276c:	2c00041e 	bne	r5,r16,802780 <_malloc_r+0xdc>
  802770:	00000a06 	br	80279c <_malloc_r+0xf8>
  802774:	1800860e 	bge	r3,zero,802990 <_malloc_r+0x2ec>
  802778:	84000317 	ldw	r16,12(r16)
  80277c:	2c000726 	beq	r5,r16,80279c <_malloc_r+0xf8>
  802780:	80800117 	ldw	r2,4(r16)
  802784:	00ffff04 	movi	r3,-4
  802788:	10c8703a 	and	r4,r2,r3
  80278c:	2447c83a 	sub	r3,r4,r17
  802790:	008003c4 	movi	r2,15
  802794:	10fff70e 	bge	r2,r3,802774 <_malloc_r+0xd0>
  802798:	31bfffc4 	addi	r6,r6,-1
  80279c:	32400044 	addi	r9,r6,1
  8027a0:	02802074 	movhi	r10,129
  8027a4:	52811704 	addi	r10,r10,1116
  8027a8:	54000217 	ldw	r16,8(r10)
  8027ac:	8280a026 	beq	r16,r10,802a30 <_malloc_r+0x38c>
  8027b0:	80800117 	ldw	r2,4(r16)
  8027b4:	00ffff04 	movi	r3,-4
  8027b8:	10ca703a 	and	r5,r2,r3
  8027bc:	2c4dc83a 	sub	r6,r5,r17
  8027c0:	008003c4 	movi	r2,15
  8027c4:	11808316 	blt	r2,r6,8029d4 <_malloc_r+0x330>
  8027c8:	52800315 	stw	r10,12(r10)
  8027cc:	52800215 	stw	r10,8(r10)
  8027d0:	30002916 	blt	r6,zero,802878 <_malloc_r+0x1d4>
  8027d4:	8147883a 	add	r3,r16,r5
  8027d8:	18800117 	ldw	r2,4(r3)
  8027dc:	9009883a 	mov	r4,r18
  8027e0:	10800054 	ori	r2,r2,1
  8027e4:	18800115 	stw	r2,4(r3)
  8027e8:	080c56c0 	call	80c56c <__malloc_unlock>
  8027ec:	80c00204 	addi	r3,r16,8
  8027f0:	003fc006 	br	8026f4 <_malloc_r+0x50>
  8027f4:	02c02074 	movhi	r11,129
  8027f8:	5ac11504 	addi	r11,r11,1108
  8027fc:	8ac5883a 	add	r2,r17,r11
  802800:	14000317 	ldw	r16,12(r2)
  802804:	580f883a 	mov	r7,r11
  802808:	8806d0fa 	srli	r3,r17,3
  80280c:	14006c26 	beq	r2,r16,8029c0 <_malloc_r+0x31c>
  802810:	80c00117 	ldw	r3,4(r16)
  802814:	00bfff04 	movi	r2,-4
  802818:	81800317 	ldw	r6,12(r16)
  80281c:	1886703a 	and	r3,r3,r2
  802820:	80c7883a 	add	r3,r16,r3
  802824:	18800117 	ldw	r2,4(r3)
  802828:	81400217 	ldw	r5,8(r16)
  80282c:	9009883a 	mov	r4,r18
  802830:	10800054 	ori	r2,r2,1
  802834:	18800115 	stw	r2,4(r3)
  802838:	31400215 	stw	r5,8(r6)
  80283c:	29800315 	stw	r6,12(r5)
  802840:	080c56c0 	call	80c56c <__malloc_unlock>
  802844:	80c00204 	addi	r3,r16,8
  802848:	003faa06 	br	8026f4 <_malloc_r+0x50>
  80284c:	00800104 	movi	r2,4
  802850:	10c0052e 	bgeu	r2,r3,802868 <_malloc_r+0x1c4>
  802854:	00800504 	movi	r2,20
  802858:	10c07836 	bltu	r2,r3,802a3c <_malloc_r+0x398>
  80285c:	198016c4 	addi	r6,r3,91
  802860:	300490fa 	slli	r2,r6,3
  802864:	003fbc06 	br	802758 <_malloc_r+0xb4>
  802868:	8804d1ba 	srli	r2,r17,6
  80286c:	11800e04 	addi	r6,r2,56
  802870:	300490fa 	slli	r2,r6,3
  802874:	003fb806 	br	802758 <_malloc_r+0xb4>
  802878:	00807fc4 	movi	r2,511
  80287c:	1140bb36 	bltu	r2,r5,802b6c <_malloc_r+0x4c8>
  802880:	2806d0fa 	srli	r3,r5,3
  802884:	573ffe04 	addi	fp,r10,-8
  802888:	00800044 	movi	r2,1
  80288c:	180890fa 	slli	r4,r3,3
  802890:	1807d0ba 	srai	r3,r3,2
  802894:	e1c00117 	ldw	r7,4(fp)
  802898:	5909883a 	add	r4,r11,r4
  80289c:	21400217 	ldw	r5,8(r4)
  8028a0:	10c4983a 	sll	r2,r2,r3
  8028a4:	81000315 	stw	r4,12(r16)
  8028a8:	81400215 	stw	r5,8(r16)
  8028ac:	388eb03a 	or	r7,r7,r2
  8028b0:	2c000315 	stw	r16,12(r5)
  8028b4:	24000215 	stw	r16,8(r4)
  8028b8:	e1c00115 	stw	r7,4(fp)
  8028bc:	4807883a 	mov	r3,r9
  8028c0:	4800cd16 	blt	r9,zero,802bf8 <_malloc_r+0x554>
  8028c4:	1807d0ba 	srai	r3,r3,2
  8028c8:	00800044 	movi	r2,1
  8028cc:	10c8983a 	sll	r4,r2,r3
  8028d0:	39004436 	bltu	r7,r4,8029e4 <_malloc_r+0x340>
  8028d4:	21c4703a 	and	r2,r4,r7
  8028d8:	10000a1e 	bne	r2,zero,802904 <_malloc_r+0x260>
  8028dc:	2109883a 	add	r4,r4,r4
  8028e0:	00bfff04 	movi	r2,-4
  8028e4:	4884703a 	and	r2,r9,r2
  8028e8:	3906703a 	and	r3,r7,r4
  8028ec:	12400104 	addi	r9,r2,4
  8028f0:	1800041e 	bne	r3,zero,802904 <_malloc_r+0x260>
  8028f4:	2109883a 	add	r4,r4,r4
  8028f8:	3904703a 	and	r2,r7,r4
  8028fc:	4a400104 	addi	r9,r9,4
  802900:	103ffc26 	beq	r2,zero,8028f4 <_malloc_r+0x250>
  802904:	480490fa 	slli	r2,r9,3
  802908:	4819883a 	mov	r12,r9
  80290c:	023fff04 	movi	r8,-4
  802910:	589b883a 	add	r13,r11,r2
  802914:	6807883a 	mov	r3,r13
  802918:	014003c4 	movi	r5,15
  80291c:	1c000317 	ldw	r16,12(r3)
  802920:	1c00041e 	bne	r3,r16,802934 <_malloc_r+0x290>
  802924:	0000a706 	br	802bc4 <_malloc_r+0x520>
  802928:	3000ab0e 	bge	r6,zero,802bd8 <_malloc_r+0x534>
  80292c:	84000317 	ldw	r16,12(r16)
  802930:	1c00a426 	beq	r3,r16,802bc4 <_malloc_r+0x520>
  802934:	80800117 	ldw	r2,4(r16)
  802938:	1204703a 	and	r2,r2,r8
  80293c:	144dc83a 	sub	r6,r2,r17
  802940:	29bff90e 	bge	r5,r6,802928 <_malloc_r+0x284>
  802944:	81000317 	ldw	r4,12(r16)
  802948:	80c00217 	ldw	r3,8(r16)
  80294c:	89400054 	ori	r5,r17,1
  802950:	8445883a 	add	r2,r16,r17
  802954:	20c00215 	stw	r3,8(r4)
  802958:	19000315 	stw	r4,12(r3)
  80295c:	81400115 	stw	r5,4(r16)
  802960:	1187883a 	add	r3,r2,r6
  802964:	31000054 	ori	r4,r6,1
  802968:	50800315 	stw	r2,12(r10)
  80296c:	50800215 	stw	r2,8(r10)
  802970:	19800015 	stw	r6,0(r3)
  802974:	11000115 	stw	r4,4(r2)
  802978:	12800215 	stw	r10,8(r2)
  80297c:	12800315 	stw	r10,12(r2)
  802980:	9009883a 	mov	r4,r18
  802984:	080c56c0 	call	80c56c <__malloc_unlock>
  802988:	80c00204 	addi	r3,r16,8
  80298c:	003f5906 	br	8026f4 <_malloc_r+0x50>
  802990:	8109883a 	add	r4,r16,r4
  802994:	20800117 	ldw	r2,4(r4)
  802998:	80c00217 	ldw	r3,8(r16)
  80299c:	81400317 	ldw	r5,12(r16)
  8029a0:	10800054 	ori	r2,r2,1
  8029a4:	20800115 	stw	r2,4(r4)
  8029a8:	28c00215 	stw	r3,8(r5)
  8029ac:	19400315 	stw	r5,12(r3)
  8029b0:	9009883a 	mov	r4,r18
  8029b4:	080c56c0 	call	80c56c <__malloc_unlock>
  8029b8:	80c00204 	addi	r3,r16,8
  8029bc:	003f4d06 	br	8026f4 <_malloc_r+0x50>
  8029c0:	80800204 	addi	r2,r16,8
  8029c4:	14000317 	ldw	r16,12(r2)
  8029c8:	143f911e 	bne	r2,r16,802810 <_malloc_r+0x16c>
  8029cc:	1a400084 	addi	r9,r3,2
  8029d0:	003f7306 	br	8027a0 <_malloc_r+0xfc>
  8029d4:	88c00054 	ori	r3,r17,1
  8029d8:	8445883a 	add	r2,r16,r17
  8029dc:	80c00115 	stw	r3,4(r16)
  8029e0:	003fdf06 	br	802960 <_malloc_r+0x2bc>
  8029e4:	e4000217 	ldw	r16,8(fp)
  8029e8:	00bfff04 	movi	r2,-4
  8029ec:	80c00117 	ldw	r3,4(r16)
  8029f0:	802d883a 	mov	r22,r16
  8029f4:	18aa703a 	and	r21,r3,r2
  8029f8:	ac401636 	bltu	r21,r17,802a54 <_malloc_r+0x3b0>
  8029fc:	ac49c83a 	sub	r4,r21,r17
  802a00:	008003c4 	movi	r2,15
  802a04:	1100130e 	bge	r2,r4,802a54 <_malloc_r+0x3b0>
  802a08:	88800054 	ori	r2,r17,1
  802a0c:	8447883a 	add	r3,r16,r17
  802a10:	80800115 	stw	r2,4(r16)
  802a14:	20800054 	ori	r2,r4,1
  802a18:	18800115 	stw	r2,4(r3)
  802a1c:	e0c00215 	stw	r3,8(fp)
  802a20:	9009883a 	mov	r4,r18
  802a24:	080c56c0 	call	80c56c <__malloc_unlock>
  802a28:	80c00204 	addi	r3,r16,8
  802a2c:	003f3106 	br	8026f4 <_malloc_r+0x50>
  802a30:	39c00117 	ldw	r7,4(r7)
  802a34:	573ffe04 	addi	fp,r10,-8
  802a38:	003fa006 	br	8028bc <_malloc_r+0x218>
  802a3c:	00801504 	movi	r2,84
  802a40:	10c06736 	bltu	r2,r3,802be0 <_malloc_r+0x53c>
  802a44:	8804d33a 	srli	r2,r17,12
  802a48:	11801b84 	addi	r6,r2,110
  802a4c:	300490fa 	slli	r2,r6,3
  802a50:	003f4106 	br	802758 <_malloc_r+0xb4>
  802a54:	d0a71817 	ldw	r2,-25504(gp)
  802a58:	d0e00117 	ldw	r3,-32764(gp)
  802a5c:	053fffc4 	movi	r20,-1
  802a60:	10800404 	addi	r2,r2,16
  802a64:	88a7883a 	add	r19,r17,r2
  802a68:	1d000326 	beq	r3,r20,802a78 <_malloc_r+0x3d4>
  802a6c:	98c3ffc4 	addi	r3,r19,4095
  802a70:	00bc0004 	movi	r2,-4096
  802a74:	18a6703a 	and	r19,r3,r2
  802a78:	9009883a 	mov	r4,r18
  802a7c:	980b883a 	mov	r5,r19
  802a80:	08035c00 	call	8035c0 <_sbrk_r>
  802a84:	1009883a 	mov	r4,r2
  802a88:	15000426 	beq	r2,r20,802a9c <_malloc_r+0x3f8>
  802a8c:	854b883a 	add	r5,r16,r21
  802a90:	1029883a 	mov	r20,r2
  802a94:	11405a2e 	bgeu	r2,r5,802c00 <_malloc_r+0x55c>
  802a98:	87000c26 	beq	r16,fp,802acc <_malloc_r+0x428>
  802a9c:	e4000217 	ldw	r16,8(fp)
  802aa0:	80c00117 	ldw	r3,4(r16)
  802aa4:	00bfff04 	movi	r2,-4
  802aa8:	1884703a 	and	r2,r3,r2
  802aac:	14400336 	bltu	r2,r17,802abc <_malloc_r+0x418>
  802ab0:	1449c83a 	sub	r4,r2,r17
  802ab4:	008003c4 	movi	r2,15
  802ab8:	113fd316 	blt	r2,r4,802a08 <_malloc_r+0x364>
  802abc:	9009883a 	mov	r4,r18
  802ac0:	080c56c0 	call	80c56c <__malloc_unlock>
  802ac4:	0007883a 	mov	r3,zero
  802ac8:	003f0a06 	br	8026f4 <_malloc_r+0x50>
  802acc:	05c02074 	movhi	r23,129
  802ad0:	bdcf3104 	addi	r23,r23,15556
  802ad4:	b8800017 	ldw	r2,0(r23)
  802ad8:	988d883a 	add	r6,r19,r2
  802adc:	b9800015 	stw	r6,0(r23)
  802ae0:	d0e00117 	ldw	r3,-32764(gp)
  802ae4:	00bfffc4 	movi	r2,-1
  802ae8:	18808e26 	beq	r3,r2,802d24 <_malloc_r+0x680>
  802aec:	2145c83a 	sub	r2,r4,r5
  802af0:	3085883a 	add	r2,r6,r2
  802af4:	b8800015 	stw	r2,0(r23)
  802af8:	20c001cc 	andi	r3,r4,7
  802afc:	18005f1e 	bne	r3,zero,802c7c <_malloc_r+0x5d8>
  802b00:	000b883a 	mov	r5,zero
  802b04:	a4c5883a 	add	r2,r20,r19
  802b08:	1083ffcc 	andi	r2,r2,4095
  802b0c:	00c40004 	movi	r3,4096
  802b10:	1887c83a 	sub	r3,r3,r2
  802b14:	28e7883a 	add	r19,r5,r3
  802b18:	9009883a 	mov	r4,r18
  802b1c:	980b883a 	mov	r5,r19
  802b20:	08035c00 	call	8035c0 <_sbrk_r>
  802b24:	1007883a 	mov	r3,r2
  802b28:	00bfffc4 	movi	r2,-1
  802b2c:	18807a26 	beq	r3,r2,802d18 <_malloc_r+0x674>
  802b30:	1d05c83a 	sub	r2,r3,r20
  802b34:	9885883a 	add	r2,r19,r2
  802b38:	10c00054 	ori	r3,r2,1
  802b3c:	b8800017 	ldw	r2,0(r23)
  802b40:	a021883a 	mov	r16,r20
  802b44:	a0c00115 	stw	r3,4(r20)
  802b48:	9885883a 	add	r2,r19,r2
  802b4c:	b8800015 	stw	r2,0(r23)
  802b50:	e5000215 	stw	r20,8(fp)
  802b54:	b7003626 	beq	r22,fp,802c30 <_malloc_r+0x58c>
  802b58:	018003c4 	movi	r6,15
  802b5c:	35404b36 	bltu	r6,r21,802c8c <_malloc_r+0x5e8>
  802b60:	00800044 	movi	r2,1
  802b64:	a0800115 	stw	r2,4(r20)
  802b68:	003fcd06 	br	802aa0 <_malloc_r+0x3fc>
  802b6c:	2808d27a 	srli	r4,r5,9
  802b70:	2000371e 	bne	r4,zero,802c50 <_malloc_r+0x5ac>
  802b74:	2808d0fa 	srli	r4,r5,3
  802b78:	200690fa 	slli	r3,r4,3
  802b7c:	1ad1883a 	add	r8,r3,r11
  802b80:	41800217 	ldw	r6,8(r8)
  802b84:	41805b26 	beq	r8,r6,802cf4 <_malloc_r+0x650>
  802b88:	30800117 	ldw	r2,4(r6)
  802b8c:	00ffff04 	movi	r3,-4
  802b90:	10c4703a 	and	r2,r2,r3
  802b94:	2880022e 	bgeu	r5,r2,802ba0 <_malloc_r+0x4fc>
  802b98:	31800217 	ldw	r6,8(r6)
  802b9c:	41bffa1e 	bne	r8,r6,802b88 <_malloc_r+0x4e4>
  802ba0:	32000317 	ldw	r8,12(r6)
  802ba4:	39c00117 	ldw	r7,4(r7)
  802ba8:	82000315 	stw	r8,12(r16)
  802bac:	81800215 	stw	r6,8(r16)
  802bb0:	07002074 	movhi	fp,129
  802bb4:	e7011504 	addi	fp,fp,1108
  802bb8:	34000315 	stw	r16,12(r6)
  802bbc:	44000215 	stw	r16,8(r8)
  802bc0:	003f3e06 	br	8028bc <_malloc_r+0x218>
  802bc4:	63000044 	addi	r12,r12,1
  802bc8:	608000cc 	andi	r2,r12,3
  802bcc:	10005d26 	beq	r2,zero,802d44 <_malloc_r+0x6a0>
  802bd0:	18c00204 	addi	r3,r3,8
  802bd4:	003f5106 	br	80291c <_malloc_r+0x278>
  802bd8:	8089883a 	add	r4,r16,r2
  802bdc:	003f6d06 	br	802994 <_malloc_r+0x2f0>
  802be0:	00805504 	movi	r2,340
  802be4:	10c02036 	bltu	r2,r3,802c68 <_malloc_r+0x5c4>
  802be8:	8804d3fa 	srli	r2,r17,15
  802bec:	11801dc4 	addi	r6,r2,119
  802bf0:	300490fa 	slli	r2,r6,3
  802bf4:	003ed806 	br	802758 <_malloc_r+0xb4>
  802bf8:	48c000c4 	addi	r3,r9,3
  802bfc:	003f3106 	br	8028c4 <_malloc_r+0x220>
  802c00:	05c02074 	movhi	r23,129
  802c04:	bdcf3104 	addi	r23,r23,15556
  802c08:	b8800017 	ldw	r2,0(r23)
  802c0c:	988d883a 	add	r6,r19,r2
  802c10:	b9800015 	stw	r6,0(r23)
  802c14:	293fb21e 	bne	r5,r4,802ae0 <_malloc_r+0x43c>
  802c18:	2083ffcc 	andi	r2,r4,4095
  802c1c:	103fb01e 	bne	r2,zero,802ae0 <_malloc_r+0x43c>
  802c20:	e4000217 	ldw	r16,8(fp)
  802c24:	9d45883a 	add	r2,r19,r21
  802c28:	10800054 	ori	r2,r2,1
  802c2c:	80800115 	stw	r2,4(r16)
  802c30:	b8c00017 	ldw	r3,0(r23)
  802c34:	d0a71917 	ldw	r2,-25500(gp)
  802c38:	10c0012e 	bgeu	r2,r3,802c40 <_malloc_r+0x59c>
  802c3c:	d0e71915 	stw	r3,-25500(gp)
  802c40:	d0a71a17 	ldw	r2,-25496(gp)
  802c44:	10ff962e 	bgeu	r2,r3,802aa0 <_malloc_r+0x3fc>
  802c48:	d0e71a15 	stw	r3,-25496(gp)
  802c4c:	003f9406 	br	802aa0 <_malloc_r+0x3fc>
  802c50:	00800104 	movi	r2,4
  802c54:	11001e36 	bltu	r2,r4,802cd0 <_malloc_r+0x62c>
  802c58:	2804d1ba 	srli	r2,r5,6
  802c5c:	11000e04 	addi	r4,r2,56
  802c60:	200690fa 	slli	r3,r4,3
  802c64:	003fc506 	br	802b7c <_malloc_r+0x4d8>
  802c68:	00815504 	movi	r2,1364
  802c6c:	10c01d2e 	bgeu	r2,r3,802ce4 <_malloc_r+0x640>
  802c70:	01801f84 	movi	r6,126
  802c74:	0080fc04 	movi	r2,1008
  802c78:	003eb706 	br	802758 <_malloc_r+0xb4>
  802c7c:	00800204 	movi	r2,8
  802c80:	10cbc83a 	sub	r5,r2,r3
  802c84:	2169883a 	add	r20,r4,r5
  802c88:	003f9e06 	br	802b04 <_malloc_r+0x460>
  802c8c:	00bffe04 	movi	r2,-8
  802c90:	a93ffd04 	addi	r4,r21,-12
  802c94:	2088703a 	and	r4,r4,r2
  802c98:	b10b883a 	add	r5,r22,r4
  802c9c:	00c00144 	movi	r3,5
  802ca0:	28c00215 	stw	r3,8(r5)
  802ca4:	28c00115 	stw	r3,4(r5)
  802ca8:	b0800117 	ldw	r2,4(r22)
  802cac:	1080004c 	andi	r2,r2,1
  802cb0:	2084b03a 	or	r2,r4,r2
  802cb4:	b0800115 	stw	r2,4(r22)
  802cb8:	313fdd2e 	bgeu	r6,r4,802c30 <_malloc_r+0x58c>
  802cbc:	b1400204 	addi	r5,r22,8
  802cc0:	9009883a 	mov	r4,r18
  802cc4:	08075ac0 	call	8075ac <_free_r>
  802cc8:	e4000217 	ldw	r16,8(fp)
  802ccc:	003fd806 	br	802c30 <_malloc_r+0x58c>
  802cd0:	00800504 	movi	r2,20
  802cd4:	11001536 	bltu	r2,r4,802d2c <_malloc_r+0x688>
  802cd8:	210016c4 	addi	r4,r4,91
  802cdc:	200690fa 	slli	r3,r4,3
  802ce0:	003fa606 	br	802b7c <_malloc_r+0x4d8>
  802ce4:	8804d4ba 	srli	r2,r17,18
  802ce8:	11801f04 	addi	r6,r2,124
  802cec:	300490fa 	slli	r2,r6,3
  802cf0:	003e9906 	br	802758 <_malloc_r+0xb4>
  802cf4:	2009d0ba 	srai	r4,r4,2
  802cf8:	01402074 	movhi	r5,129
  802cfc:	29411504 	addi	r5,r5,1108
  802d00:	00c00044 	movi	r3,1
  802d04:	28800117 	ldw	r2,4(r5)
  802d08:	1906983a 	sll	r3,r3,r4
  802d0c:	10c4b03a 	or	r2,r2,r3
  802d10:	28800115 	stw	r2,4(r5)
  802d14:	003fa306 	br	802ba4 <_malloc_r+0x500>
  802d18:	0027883a 	mov	r19,zero
  802d1c:	00c00044 	movi	r3,1
  802d20:	003f8606 	br	802b3c <_malloc_r+0x498>
  802d24:	d1200115 	stw	r4,-32764(gp)
  802d28:	003f7306 	br	802af8 <_malloc_r+0x454>
  802d2c:	00801504 	movi	r2,84
  802d30:	11001936 	bltu	r2,r4,802d98 <_malloc_r+0x6f4>
  802d34:	2804d33a 	srli	r2,r5,12
  802d38:	11001b84 	addi	r4,r2,110
  802d3c:	200690fa 	slli	r3,r4,3
  802d40:	003f8e06 	br	802b7c <_malloc_r+0x4d8>
  802d44:	480b883a 	mov	r5,r9
  802d48:	6807883a 	mov	r3,r13
  802d4c:	288000cc 	andi	r2,r5,3
  802d50:	18fffe04 	addi	r3,r3,-8
  802d54:	297fffc4 	addi	r5,r5,-1
  802d58:	10001526 	beq	r2,zero,802db0 <_malloc_r+0x70c>
  802d5c:	18800217 	ldw	r2,8(r3)
  802d60:	10fffa26 	beq	r2,r3,802d4c <_malloc_r+0x6a8>
  802d64:	2109883a 	add	r4,r4,r4
  802d68:	393f1e36 	bltu	r7,r4,8029e4 <_malloc_r+0x340>
  802d6c:	203f1d26 	beq	r4,zero,8029e4 <_malloc_r+0x340>
  802d70:	21c4703a 	and	r2,r4,r7
  802d74:	10000226 	beq	r2,zero,802d80 <_malloc_r+0x6dc>
  802d78:	6013883a 	mov	r9,r12
  802d7c:	003ee106 	br	802904 <_malloc_r+0x260>
  802d80:	2109883a 	add	r4,r4,r4
  802d84:	3904703a 	and	r2,r7,r4
  802d88:	63000104 	addi	r12,r12,4
  802d8c:	103ffc26 	beq	r2,zero,802d80 <_malloc_r+0x6dc>
  802d90:	6013883a 	mov	r9,r12
  802d94:	003edb06 	br	802904 <_malloc_r+0x260>
  802d98:	00805504 	movi	r2,340
  802d9c:	11000836 	bltu	r2,r4,802dc0 <_malloc_r+0x71c>
  802da0:	2804d3fa 	srli	r2,r5,15
  802da4:	11001dc4 	addi	r4,r2,119
  802da8:	200690fa 	slli	r3,r4,3
  802dac:	003f7306 	br	802b7c <_malloc_r+0x4d8>
  802db0:	0104303a 	nor	r2,zero,r4
  802db4:	388e703a 	and	r7,r7,r2
  802db8:	e1c00115 	stw	r7,4(fp)
  802dbc:	003fe906 	br	802d64 <_malloc_r+0x6c0>
  802dc0:	00815504 	movi	r2,1364
  802dc4:	1100032e 	bgeu	r2,r4,802dd4 <_malloc_r+0x730>
  802dc8:	01001f84 	movi	r4,126
  802dcc:	00c0fc04 	movi	r3,1008
  802dd0:	003f6a06 	br	802b7c <_malloc_r+0x4d8>
  802dd4:	2804d4ba 	srli	r2,r5,18
  802dd8:	11001f04 	addi	r4,r2,124
  802ddc:	200690fa 	slli	r3,r4,3
  802de0:	003f6606 	br	802b7c <_malloc_r+0x4d8>

00802de4 <memcpy>:
  802de4:	01c003c4 	movi	r7,15
  802de8:	2007883a 	mov	r3,r4
  802dec:	3980032e 	bgeu	r7,r6,802dfc <memcpy+0x18>
  802df0:	2904b03a 	or	r2,r5,r4
  802df4:	108000cc 	andi	r2,r2,3
  802df8:	10000926 	beq	r2,zero,802e20 <memcpy+0x3c>
  802dfc:	30000626 	beq	r6,zero,802e18 <memcpy+0x34>
  802e00:	30cd883a 	add	r6,r6,r3
  802e04:	28800003 	ldbu	r2,0(r5)
  802e08:	29400044 	addi	r5,r5,1
  802e0c:	18800005 	stb	r2,0(r3)
  802e10:	18c00044 	addi	r3,r3,1
  802e14:	30fffb1e 	bne	r6,r3,802e04 <memcpy+0x20>
  802e18:	2005883a 	mov	r2,r4
  802e1c:	f800283a 	ret
  802e20:	3811883a 	mov	r8,r7
  802e24:	200f883a 	mov	r7,r4
  802e28:	28c00017 	ldw	r3,0(r5)
  802e2c:	31bffc04 	addi	r6,r6,-16
  802e30:	38c00015 	stw	r3,0(r7)
  802e34:	28800117 	ldw	r2,4(r5)
  802e38:	38800115 	stw	r2,4(r7)
  802e3c:	28c00217 	ldw	r3,8(r5)
  802e40:	38c00215 	stw	r3,8(r7)
  802e44:	28800317 	ldw	r2,12(r5)
  802e48:	29400404 	addi	r5,r5,16
  802e4c:	38800315 	stw	r2,12(r7)
  802e50:	39c00404 	addi	r7,r7,16
  802e54:	41bff436 	bltu	r8,r6,802e28 <memcpy+0x44>
  802e58:	008000c4 	movi	r2,3
  802e5c:	1180072e 	bgeu	r2,r6,802e7c <memcpy+0x98>
  802e60:	1007883a 	mov	r3,r2
  802e64:	28800017 	ldw	r2,0(r5)
  802e68:	31bfff04 	addi	r6,r6,-4
  802e6c:	29400104 	addi	r5,r5,4
  802e70:	38800015 	stw	r2,0(r7)
  802e74:	39c00104 	addi	r7,r7,4
  802e78:	19bffa36 	bltu	r3,r6,802e64 <memcpy+0x80>
  802e7c:	3807883a 	mov	r3,r7
  802e80:	003fde06 	br	802dfc <memcpy+0x18>

00802e84 <printf>:
  802e84:	defffb04 	addi	sp,sp,-20
  802e88:	dfc00115 	stw	ra,4(sp)
  802e8c:	d9400215 	stw	r5,8(sp)
  802e90:	d9800315 	stw	r6,12(sp)
  802e94:	d9c00415 	stw	r7,16(sp)
  802e98:	00802074 	movhi	r2,129
  802e9c:	10880c04 	addi	r2,r2,8240
  802ea0:	10c00017 	ldw	r3,0(r2)
  802ea4:	200b883a 	mov	r5,r4
  802ea8:	d8800204 	addi	r2,sp,8
  802eac:	19000217 	ldw	r4,8(r3)
  802eb0:	100d883a 	mov	r6,r2
  802eb4:	d8800015 	stw	r2,0(sp)
  802eb8:	08056640 	call	805664 <__vfprintf_internal>
  802ebc:	dfc00117 	ldw	ra,4(sp)
  802ec0:	dec00504 	addi	sp,sp,20
  802ec4:	f800283a 	ret

00802ec8 <_printf_r>:
  802ec8:	defffc04 	addi	sp,sp,-16
  802ecc:	dfc00115 	stw	ra,4(sp)
  802ed0:	d9800215 	stw	r6,8(sp)
  802ed4:	d9c00315 	stw	r7,12(sp)
  802ed8:	280d883a 	mov	r6,r5
  802edc:	21400217 	ldw	r5,8(r4)
  802ee0:	d8c00204 	addi	r3,sp,8
  802ee4:	180f883a 	mov	r7,r3
  802ee8:	d8c00015 	stw	r3,0(sp)
  802eec:	08037b80 	call	8037b8 <___vfprintf_internal_r>
  802ef0:	dfc00117 	ldw	ra,4(sp)
  802ef4:	dec00404 	addi	sp,sp,16
  802ef8:	f800283a 	ret

00802efc <_puts_r>:
  802efc:	defff604 	addi	sp,sp,-40
  802f00:	dc400715 	stw	r17,28(sp)
  802f04:	2023883a 	mov	r17,r4
  802f08:	2809883a 	mov	r4,r5
  802f0c:	dfc00915 	stw	ra,36(sp)
  802f10:	dcc00815 	stw	r19,32(sp)
  802f14:	2827883a 	mov	r19,r5
  802f18:	08036300 	call	803630 <strlen>
  802f1c:	89400217 	ldw	r5,8(r17)
  802f20:	00c02074 	movhi	r3,129
  802f24:	18c01204 	addi	r3,r3,72
  802f28:	01c00044 	movi	r7,1
  802f2c:	12000044 	addi	r8,r2,1
  802f30:	d8c00515 	stw	r3,20(sp)
  802f34:	d9c00615 	stw	r7,24(sp)
  802f38:	d8c00304 	addi	r3,sp,12
  802f3c:	01c00084 	movi	r7,2
  802f40:	8809883a 	mov	r4,r17
  802f44:	d80d883a 	mov	r6,sp
  802f48:	d8c00015 	stw	r3,0(sp)
  802f4c:	dcc00315 	stw	r19,12(sp)
  802f50:	da000215 	stw	r8,8(sp)
  802f54:	d9c00115 	stw	r7,4(sp)
  802f58:	d8800415 	stw	r2,16(sp)
  802f5c:	08078c00 	call	8078c0 <__sfvwrite_r>
  802f60:	00ffffc4 	movi	r3,-1
  802f64:	10000626 	beq	r2,zero,802f80 <_puts_r+0x84>
  802f68:	1805883a 	mov	r2,r3
  802f6c:	dfc00917 	ldw	ra,36(sp)
  802f70:	dcc00817 	ldw	r19,32(sp)
  802f74:	dc400717 	ldw	r17,28(sp)
  802f78:	dec00a04 	addi	sp,sp,40
  802f7c:	f800283a 	ret
  802f80:	00c00284 	movi	r3,10
  802f84:	1805883a 	mov	r2,r3
  802f88:	dfc00917 	ldw	ra,36(sp)
  802f8c:	dcc00817 	ldw	r19,32(sp)
  802f90:	dc400717 	ldw	r17,28(sp)
  802f94:	dec00a04 	addi	sp,sp,40
  802f98:	f800283a 	ret

00802f9c <puts>:
  802f9c:	00802074 	movhi	r2,129
  802fa0:	10880c04 	addi	r2,r2,8240
  802fa4:	200b883a 	mov	r5,r4
  802fa8:	11000017 	ldw	r4,0(r2)
  802fac:	0802efc1 	jmpi	802efc <_puts_r>

00802fb0 <realloc>:
  802fb0:	01802074 	movhi	r6,129
  802fb4:	31880c04 	addi	r6,r6,8240
  802fb8:	2007883a 	mov	r3,r4
  802fbc:	31000017 	ldw	r4,0(r6)
  802fc0:	280d883a 	mov	r6,r5
  802fc4:	180b883a 	mov	r5,r3
  802fc8:	0802fcc1 	jmpi	802fcc <_realloc_r>

00802fcc <_realloc_r>:
  802fcc:	defff404 	addi	sp,sp,-48
  802fd0:	dd800815 	stw	r22,32(sp)
  802fd4:	dc800415 	stw	r18,16(sp)
  802fd8:	dc400315 	stw	r17,12(sp)
  802fdc:	dfc00b15 	stw	ra,44(sp)
  802fe0:	df000a15 	stw	fp,40(sp)
  802fe4:	ddc00915 	stw	r23,36(sp)
  802fe8:	dd400715 	stw	r21,28(sp)
  802fec:	dd000615 	stw	r20,24(sp)
  802ff0:	dcc00515 	stw	r19,20(sp)
  802ff4:	dc000215 	stw	r16,8(sp)
  802ff8:	2825883a 	mov	r18,r5
  802ffc:	3023883a 	mov	r17,r6
  803000:	202d883a 	mov	r22,r4
  803004:	2800c926 	beq	r5,zero,80332c <_realloc_r+0x360>
  803008:	080c54c0 	call	80c54c <__malloc_lock>
  80300c:	943ffe04 	addi	r16,r18,-8
  803010:	88c002c4 	addi	r3,r17,11
  803014:	00800584 	movi	r2,22
  803018:	82000117 	ldw	r8,4(r16)
  80301c:	10c01b2e 	bgeu	r2,r3,80308c <_realloc_r+0xc0>
  803020:	00bffe04 	movi	r2,-8
  803024:	188e703a 	and	r7,r3,r2
  803028:	3839883a 	mov	fp,r7
  80302c:	38001a16 	blt	r7,zero,803098 <_realloc_r+0xcc>
  803030:	e4401936 	bltu	fp,r17,803098 <_realloc_r+0xcc>
  803034:	013fff04 	movi	r4,-4
  803038:	4126703a 	and	r19,r8,r4
  80303c:	99c02616 	blt	r19,r7,8030d8 <_realloc_r+0x10c>
  803040:	802b883a 	mov	r21,r16
  803044:	9829883a 	mov	r20,r19
  803048:	84000204 	addi	r16,r16,8
  80304c:	a80f883a 	mov	r7,r21
  803050:	a70dc83a 	sub	r6,r20,fp
  803054:	008003c4 	movi	r2,15
  803058:	1180c136 	bltu	r2,r6,803360 <_realloc_r+0x394>
  80305c:	38800117 	ldw	r2,4(r7)
  803060:	a549883a 	add	r4,r20,r21
  803064:	1080004c 	andi	r2,r2,1
  803068:	a084b03a 	or	r2,r20,r2
  80306c:	38800115 	stw	r2,4(r7)
  803070:	20c00117 	ldw	r3,4(r4)
  803074:	18c00054 	ori	r3,r3,1
  803078:	20c00115 	stw	r3,4(r4)
  80307c:	b009883a 	mov	r4,r22
  803080:	080c56c0 	call	80c56c <__malloc_unlock>
  803084:	8023883a 	mov	r17,r16
  803088:	00000606 	br	8030a4 <_realloc_r+0xd8>
  80308c:	01c00404 	movi	r7,16
  803090:	3839883a 	mov	fp,r7
  803094:	e47fe72e 	bgeu	fp,r17,803034 <_realloc_r+0x68>
  803098:	00800304 	movi	r2,12
  80309c:	0023883a 	mov	r17,zero
  8030a0:	b0800015 	stw	r2,0(r22)
  8030a4:	8805883a 	mov	r2,r17
  8030a8:	dfc00b17 	ldw	ra,44(sp)
  8030ac:	df000a17 	ldw	fp,40(sp)
  8030b0:	ddc00917 	ldw	r23,36(sp)
  8030b4:	dd800817 	ldw	r22,32(sp)
  8030b8:	dd400717 	ldw	r21,28(sp)
  8030bc:	dd000617 	ldw	r20,24(sp)
  8030c0:	dcc00517 	ldw	r19,20(sp)
  8030c4:	dc800417 	ldw	r18,16(sp)
  8030c8:	dc400317 	ldw	r17,12(sp)
  8030cc:	dc000217 	ldw	r16,8(sp)
  8030d0:	dec00c04 	addi	sp,sp,48
  8030d4:	f800283a 	ret
  8030d8:	00802074 	movhi	r2,129
  8030dc:	10811504 	addi	r2,r2,1108
  8030e0:	12400217 	ldw	r9,8(r2)
  8030e4:	84cd883a 	add	r6,r16,r19
  8030e8:	802b883a 	mov	r21,r16
  8030ec:	3240b926 	beq	r6,r9,8033d4 <_realloc_r+0x408>
  8030f0:	31400117 	ldw	r5,4(r6)
  8030f4:	00bfff84 	movi	r2,-2
  8030f8:	2884703a 	and	r2,r5,r2
  8030fc:	1185883a 	add	r2,r2,r6
  803100:	10c00117 	ldw	r3,4(r2)
  803104:	18c0004c 	andi	r3,r3,1
  803108:	1807003a 	cmpeq	r3,r3,zero
  80310c:	1800a326 	beq	r3,zero,80339c <_realloc_r+0x3d0>
  803110:	2908703a 	and	r4,r5,r4
  803114:	9929883a 	add	r20,r19,r4
  803118:	a1c0a30e 	bge	r20,r7,8033a8 <_realloc_r+0x3dc>
  80311c:	4080004c 	andi	r2,r8,1
  803120:	1000551e 	bne	r2,zero,803278 <_realloc_r+0x2ac>
  803124:	80800017 	ldw	r2,0(r16)
  803128:	80afc83a 	sub	r23,r16,r2
  80312c:	b8c00117 	ldw	r3,4(r23)
  803130:	00bfff04 	movi	r2,-4
  803134:	1884703a 	and	r2,r3,r2
  803138:	30002e26 	beq	r6,zero,8031f4 <_realloc_r+0x228>
  80313c:	3240b926 	beq	r6,r9,803424 <_realloc_r+0x458>
  803140:	98a9883a 	add	r20,r19,r2
  803144:	2509883a 	add	r4,r4,r20
  803148:	d9000015 	stw	r4,0(sp)
  80314c:	21c02a16 	blt	r4,r7,8031f8 <_realloc_r+0x22c>
  803150:	30800317 	ldw	r2,12(r6)
  803154:	30c00217 	ldw	r3,8(r6)
  803158:	01400904 	movi	r5,36
  80315c:	99bfff04 	addi	r6,r19,-4
  803160:	18800315 	stw	r2,12(r3)
  803164:	10c00215 	stw	r3,8(r2)
  803168:	b9000317 	ldw	r4,12(r23)
  80316c:	b8800217 	ldw	r2,8(r23)
  803170:	b82b883a 	mov	r21,r23
  803174:	bc000204 	addi	r16,r23,8
  803178:	20800215 	stw	r2,8(r4)
  80317c:	11000315 	stw	r4,12(r2)
  803180:	2980e436 	bltu	r5,r6,803514 <_realloc_r+0x548>
  803184:	008004c4 	movi	r2,19
  803188:	9009883a 	mov	r4,r18
  80318c:	8011883a 	mov	r8,r16
  803190:	11800f2e 	bgeu	r2,r6,8031d0 <_realloc_r+0x204>
  803194:	90800017 	ldw	r2,0(r18)
  803198:	ba000404 	addi	r8,r23,16
  80319c:	91000204 	addi	r4,r18,8
  8031a0:	b8800215 	stw	r2,8(r23)
  8031a4:	90c00117 	ldw	r3,4(r18)
  8031a8:	008006c4 	movi	r2,27
  8031ac:	b8c00315 	stw	r3,12(r23)
  8031b0:	1180072e 	bgeu	r2,r6,8031d0 <_realloc_r+0x204>
  8031b4:	90c00217 	ldw	r3,8(r18)
  8031b8:	ba000604 	addi	r8,r23,24
  8031bc:	91000404 	addi	r4,r18,16
  8031c0:	b8c00415 	stw	r3,16(r23)
  8031c4:	90800317 	ldw	r2,12(r18)
  8031c8:	b8800515 	stw	r2,20(r23)
  8031cc:	3140e726 	beq	r6,r5,80356c <_realloc_r+0x5a0>
  8031d0:	20800017 	ldw	r2,0(r4)
  8031d4:	dd000017 	ldw	r20,0(sp)
  8031d8:	b80f883a 	mov	r7,r23
  8031dc:	40800015 	stw	r2,0(r8)
  8031e0:	20c00117 	ldw	r3,4(r4)
  8031e4:	40c00115 	stw	r3,4(r8)
  8031e8:	20800217 	ldw	r2,8(r4)
  8031ec:	40800215 	stw	r2,8(r8)
  8031f0:	003f9706 	br	803050 <_realloc_r+0x84>
  8031f4:	98a9883a 	add	r20,r19,r2
  8031f8:	a1c01f16 	blt	r20,r7,803278 <_realloc_r+0x2ac>
  8031fc:	b8c00317 	ldw	r3,12(r23)
  803200:	b8800217 	ldw	r2,8(r23)
  803204:	99bfff04 	addi	r6,r19,-4
  803208:	01400904 	movi	r5,36
  80320c:	b82b883a 	mov	r21,r23
  803210:	18800215 	stw	r2,8(r3)
  803214:	10c00315 	stw	r3,12(r2)
  803218:	bc000204 	addi	r16,r23,8
  80321c:	2980c336 	bltu	r5,r6,80352c <_realloc_r+0x560>
  803220:	008004c4 	movi	r2,19
  803224:	9009883a 	mov	r4,r18
  803228:	8011883a 	mov	r8,r16
  80322c:	11800f2e 	bgeu	r2,r6,80326c <_realloc_r+0x2a0>
  803230:	90800017 	ldw	r2,0(r18)
  803234:	ba000404 	addi	r8,r23,16
  803238:	91000204 	addi	r4,r18,8
  80323c:	b8800215 	stw	r2,8(r23)
  803240:	90c00117 	ldw	r3,4(r18)
  803244:	008006c4 	movi	r2,27
  803248:	b8c00315 	stw	r3,12(r23)
  80324c:	1180072e 	bgeu	r2,r6,80326c <_realloc_r+0x2a0>
  803250:	90c00217 	ldw	r3,8(r18)
  803254:	ba000604 	addi	r8,r23,24
  803258:	91000404 	addi	r4,r18,16
  80325c:	b8c00415 	stw	r3,16(r23)
  803260:	90800317 	ldw	r2,12(r18)
  803264:	b8800515 	stw	r2,20(r23)
  803268:	3140c726 	beq	r6,r5,803588 <_realloc_r+0x5bc>
  80326c:	20800017 	ldw	r2,0(r4)
  803270:	b80f883a 	mov	r7,r23
  803274:	003fd906 	br	8031dc <_realloc_r+0x210>
  803278:	880b883a 	mov	r5,r17
  80327c:	b009883a 	mov	r4,r22
  803280:	08026a40 	call	8026a4 <_malloc_r>
  803284:	1023883a 	mov	r17,r2
  803288:	10002526 	beq	r2,zero,803320 <_realloc_r+0x354>
  80328c:	80800117 	ldw	r2,4(r16)
  803290:	00ffff84 	movi	r3,-2
  803294:	893ffe04 	addi	r4,r17,-8
  803298:	10c4703a 	and	r2,r2,r3
  80329c:	8085883a 	add	r2,r16,r2
  8032a0:	20809526 	beq	r4,r2,8034f8 <_realloc_r+0x52c>
  8032a4:	99bfff04 	addi	r6,r19,-4
  8032a8:	01c00904 	movi	r7,36
  8032ac:	39804536 	bltu	r7,r6,8033c4 <_realloc_r+0x3f8>
  8032b0:	008004c4 	movi	r2,19
  8032b4:	9009883a 	mov	r4,r18
  8032b8:	880b883a 	mov	r5,r17
  8032bc:	11800f2e 	bgeu	r2,r6,8032fc <_realloc_r+0x330>
  8032c0:	90800017 	ldw	r2,0(r18)
  8032c4:	89400204 	addi	r5,r17,8
  8032c8:	91000204 	addi	r4,r18,8
  8032cc:	88800015 	stw	r2,0(r17)
  8032d0:	90c00117 	ldw	r3,4(r18)
  8032d4:	008006c4 	movi	r2,27
  8032d8:	88c00115 	stw	r3,4(r17)
  8032dc:	1180072e 	bgeu	r2,r6,8032fc <_realloc_r+0x330>
  8032e0:	90c00217 	ldw	r3,8(r18)
  8032e4:	89400404 	addi	r5,r17,16
  8032e8:	91000404 	addi	r4,r18,16
  8032ec:	88c00215 	stw	r3,8(r17)
  8032f0:	90800317 	ldw	r2,12(r18)
  8032f4:	88800315 	stw	r2,12(r17)
  8032f8:	31c09126 	beq	r6,r7,803540 <_realloc_r+0x574>
  8032fc:	20800017 	ldw	r2,0(r4)
  803300:	28800015 	stw	r2,0(r5)
  803304:	20c00117 	ldw	r3,4(r4)
  803308:	28c00115 	stw	r3,4(r5)
  80330c:	20800217 	ldw	r2,8(r4)
  803310:	28800215 	stw	r2,8(r5)
  803314:	900b883a 	mov	r5,r18
  803318:	b009883a 	mov	r4,r22
  80331c:	08075ac0 	call	8075ac <_free_r>
  803320:	b009883a 	mov	r4,r22
  803324:	080c56c0 	call	80c56c <__malloc_unlock>
  803328:	003f5e06 	br	8030a4 <_realloc_r+0xd8>
  80332c:	300b883a 	mov	r5,r6
  803330:	dfc00b17 	ldw	ra,44(sp)
  803334:	df000a17 	ldw	fp,40(sp)
  803338:	ddc00917 	ldw	r23,36(sp)
  80333c:	dd800817 	ldw	r22,32(sp)
  803340:	dd400717 	ldw	r21,28(sp)
  803344:	dd000617 	ldw	r20,24(sp)
  803348:	dcc00517 	ldw	r19,20(sp)
  80334c:	dc800417 	ldw	r18,16(sp)
  803350:	dc400317 	ldw	r17,12(sp)
  803354:	dc000217 	ldw	r16,8(sp)
  803358:	dec00c04 	addi	sp,sp,48
  80335c:	08026a41 	jmpi	8026a4 <_malloc_r>
  803360:	38800117 	ldw	r2,4(r7)
  803364:	e54b883a 	add	r5,fp,r21
  803368:	31000054 	ori	r4,r6,1
  80336c:	1080004c 	andi	r2,r2,1
  803370:	1704b03a 	or	r2,r2,fp
  803374:	38800115 	stw	r2,4(r7)
  803378:	29000115 	stw	r4,4(r5)
  80337c:	2987883a 	add	r3,r5,r6
  803380:	18800117 	ldw	r2,4(r3)
  803384:	29400204 	addi	r5,r5,8
  803388:	b009883a 	mov	r4,r22
  80338c:	10800054 	ori	r2,r2,1
  803390:	18800115 	stw	r2,4(r3)
  803394:	08075ac0 	call	8075ac <_free_r>
  803398:	003f3806 	br	80307c <_realloc_r+0xb0>
  80339c:	000d883a 	mov	r6,zero
  8033a0:	0009883a 	mov	r4,zero
  8033a4:	003f5d06 	br	80311c <_realloc_r+0x150>
  8033a8:	30c00217 	ldw	r3,8(r6)
  8033ac:	30800317 	ldw	r2,12(r6)
  8033b0:	800f883a 	mov	r7,r16
  8033b4:	84000204 	addi	r16,r16,8
  8033b8:	10c00215 	stw	r3,8(r2)
  8033bc:	18800315 	stw	r2,12(r3)
  8033c0:	003f2306 	br	803050 <_realloc_r+0x84>
  8033c4:	8809883a 	mov	r4,r17
  8033c8:	900b883a 	mov	r5,r18
  8033cc:	08082180 	call	808218 <memmove>
  8033d0:	003fd006 	br	803314 <_realloc_r+0x348>
  8033d4:	30800117 	ldw	r2,4(r6)
  8033d8:	e0c00404 	addi	r3,fp,16
  8033dc:	1108703a 	and	r4,r2,r4
  8033e0:	9905883a 	add	r2,r19,r4
  8033e4:	10ff4d16 	blt	r2,r3,80311c <_realloc_r+0x150>
  8033e8:	1705c83a 	sub	r2,r2,fp
  8033ec:	870b883a 	add	r5,r16,fp
  8033f0:	10800054 	ori	r2,r2,1
  8033f4:	28800115 	stw	r2,4(r5)
  8033f8:	80c00117 	ldw	r3,4(r16)
  8033fc:	00802074 	movhi	r2,129
  803400:	10811504 	addi	r2,r2,1108
  803404:	b009883a 	mov	r4,r22
  803408:	18c0004c 	andi	r3,r3,1
  80340c:	e0c6b03a 	or	r3,fp,r3
  803410:	11400215 	stw	r5,8(r2)
  803414:	80c00115 	stw	r3,4(r16)
  803418:	080c56c0 	call	80c56c <__malloc_unlock>
  80341c:	84400204 	addi	r17,r16,8
  803420:	003f2006 	br	8030a4 <_realloc_r+0xd8>
  803424:	98a9883a 	add	r20,r19,r2
  803428:	2509883a 	add	r4,r4,r20
  80342c:	e0800404 	addi	r2,fp,16
  803430:	d9000115 	stw	r4,4(sp)
  803434:	20bf7016 	blt	r4,r2,8031f8 <_realloc_r+0x22c>
  803438:	b8c00317 	ldw	r3,12(r23)
  80343c:	b8800217 	ldw	r2,8(r23)
  803440:	99bfff04 	addi	r6,r19,-4
  803444:	01400904 	movi	r5,36
  803448:	18800215 	stw	r2,8(r3)
  80344c:	10c00315 	stw	r3,12(r2)
  803450:	bc400204 	addi	r17,r23,8
  803454:	29804136 	bltu	r5,r6,80355c <_realloc_r+0x590>
  803458:	008004c4 	movi	r2,19
  80345c:	9009883a 	mov	r4,r18
  803460:	880f883a 	mov	r7,r17
  803464:	11800f2e 	bgeu	r2,r6,8034a4 <_realloc_r+0x4d8>
  803468:	90800017 	ldw	r2,0(r18)
  80346c:	b9c00404 	addi	r7,r23,16
  803470:	91000204 	addi	r4,r18,8
  803474:	b8800215 	stw	r2,8(r23)
  803478:	90c00117 	ldw	r3,4(r18)
  80347c:	008006c4 	movi	r2,27
  803480:	b8c00315 	stw	r3,12(r23)
  803484:	1180072e 	bgeu	r2,r6,8034a4 <_realloc_r+0x4d8>
  803488:	90c00217 	ldw	r3,8(r18)
  80348c:	b9c00604 	addi	r7,r23,24
  803490:	91000404 	addi	r4,r18,16
  803494:	b8c00415 	stw	r3,16(r23)
  803498:	90800317 	ldw	r2,12(r18)
  80349c:	b8800515 	stw	r2,20(r23)
  8034a0:	31404026 	beq	r6,r5,8035a4 <_realloc_r+0x5d8>
  8034a4:	20800017 	ldw	r2,0(r4)
  8034a8:	38800015 	stw	r2,0(r7)
  8034ac:	20c00117 	ldw	r3,4(r4)
  8034b0:	38c00115 	stw	r3,4(r7)
  8034b4:	20800217 	ldw	r2,8(r4)
  8034b8:	38800215 	stw	r2,8(r7)
  8034bc:	d8c00117 	ldw	r3,4(sp)
  8034c0:	bf0b883a 	add	r5,r23,fp
  8034c4:	b009883a 	mov	r4,r22
  8034c8:	1f05c83a 	sub	r2,r3,fp
  8034cc:	10800054 	ori	r2,r2,1
  8034d0:	28800115 	stw	r2,4(r5)
  8034d4:	b8c00117 	ldw	r3,4(r23)
  8034d8:	00802074 	movhi	r2,129
  8034dc:	10811504 	addi	r2,r2,1108
  8034e0:	11400215 	stw	r5,8(r2)
  8034e4:	18c0004c 	andi	r3,r3,1
  8034e8:	e0c6b03a 	or	r3,fp,r3
  8034ec:	b8c00115 	stw	r3,4(r23)
  8034f0:	080c56c0 	call	80c56c <__malloc_unlock>
  8034f4:	003eeb06 	br	8030a4 <_realloc_r+0xd8>
  8034f8:	20800117 	ldw	r2,4(r4)
  8034fc:	00ffff04 	movi	r3,-4
  803500:	800f883a 	mov	r7,r16
  803504:	10c4703a 	and	r2,r2,r3
  803508:	98a9883a 	add	r20,r19,r2
  80350c:	84000204 	addi	r16,r16,8
  803510:	003ecf06 	br	803050 <_realloc_r+0x84>
  803514:	900b883a 	mov	r5,r18
  803518:	8009883a 	mov	r4,r16
  80351c:	08082180 	call	808218 <memmove>
  803520:	dd000017 	ldw	r20,0(sp)
  803524:	b80f883a 	mov	r7,r23
  803528:	003ec906 	br	803050 <_realloc_r+0x84>
  80352c:	900b883a 	mov	r5,r18
  803530:	8009883a 	mov	r4,r16
  803534:	08082180 	call	808218 <memmove>
  803538:	b80f883a 	mov	r7,r23
  80353c:	003ec406 	br	803050 <_realloc_r+0x84>
  803540:	90c00417 	ldw	r3,16(r18)
  803544:	89400604 	addi	r5,r17,24
  803548:	91000604 	addi	r4,r18,24
  80354c:	88c00415 	stw	r3,16(r17)
  803550:	90800517 	ldw	r2,20(r18)
  803554:	88800515 	stw	r2,20(r17)
  803558:	003f6806 	br	8032fc <_realloc_r+0x330>
  80355c:	900b883a 	mov	r5,r18
  803560:	8809883a 	mov	r4,r17
  803564:	08082180 	call	808218 <memmove>
  803568:	003fd406 	br	8034bc <_realloc_r+0x4f0>
  80356c:	90c00417 	ldw	r3,16(r18)
  803570:	91000604 	addi	r4,r18,24
  803574:	ba000804 	addi	r8,r23,32
  803578:	b8c00615 	stw	r3,24(r23)
  80357c:	90800517 	ldw	r2,20(r18)
  803580:	b8800715 	stw	r2,28(r23)
  803584:	003f1206 	br	8031d0 <_realloc_r+0x204>
  803588:	90c00417 	ldw	r3,16(r18)
  80358c:	91000604 	addi	r4,r18,24
  803590:	ba000804 	addi	r8,r23,32
  803594:	b8c00615 	stw	r3,24(r23)
  803598:	90800517 	ldw	r2,20(r18)
  80359c:	b8800715 	stw	r2,28(r23)
  8035a0:	003f3206 	br	80326c <_realloc_r+0x2a0>
  8035a4:	90c00417 	ldw	r3,16(r18)
  8035a8:	91000604 	addi	r4,r18,24
  8035ac:	b9c00804 	addi	r7,r23,32
  8035b0:	b8c00615 	stw	r3,24(r23)
  8035b4:	90800517 	ldw	r2,20(r18)
  8035b8:	b8800715 	stw	r2,28(r23)
  8035bc:	003fb906 	br	8034a4 <_realloc_r+0x4d8>

008035c0 <_sbrk_r>:
  8035c0:	defffd04 	addi	sp,sp,-12
  8035c4:	dc000015 	stw	r16,0(sp)
  8035c8:	04002074 	movhi	r16,129
  8035cc:	840f2504 	addi	r16,r16,15508
  8035d0:	dc400115 	stw	r17,4(sp)
  8035d4:	80000015 	stw	zero,0(r16)
  8035d8:	2023883a 	mov	r17,r4
  8035dc:	2809883a 	mov	r4,r5
  8035e0:	dfc00215 	stw	ra,8(sp)
  8035e4:	080c76c0 	call	80c76c <sbrk>
  8035e8:	1007883a 	mov	r3,r2
  8035ec:	00bfffc4 	movi	r2,-1
  8035f0:	18800626 	beq	r3,r2,80360c <_sbrk_r+0x4c>
  8035f4:	1805883a 	mov	r2,r3
  8035f8:	dfc00217 	ldw	ra,8(sp)
  8035fc:	dc400117 	ldw	r17,4(sp)
  803600:	dc000017 	ldw	r16,0(sp)
  803604:	dec00304 	addi	sp,sp,12
  803608:	f800283a 	ret
  80360c:	80800017 	ldw	r2,0(r16)
  803610:	103ff826 	beq	r2,zero,8035f4 <_sbrk_r+0x34>
  803614:	88800015 	stw	r2,0(r17)
  803618:	1805883a 	mov	r2,r3
  80361c:	dfc00217 	ldw	ra,8(sp)
  803620:	dc400117 	ldw	r17,4(sp)
  803624:	dc000017 	ldw	r16,0(sp)
  803628:	dec00304 	addi	sp,sp,12
  80362c:	f800283a 	ret

00803630 <strlen>:
  803630:	208000cc 	andi	r2,r4,3
  803634:	2011883a 	mov	r8,r4
  803638:	1000161e 	bne	r2,zero,803694 <strlen+0x64>
  80363c:	20c00017 	ldw	r3,0(r4)
  803640:	017fbff4 	movhi	r5,65279
  803644:	297fbfc4 	addi	r5,r5,-257
  803648:	01e02074 	movhi	r7,32897
  80364c:	39e02004 	addi	r7,r7,-32640
  803650:	1945883a 	add	r2,r3,r5
  803654:	11c4703a 	and	r2,r2,r7
  803658:	00c6303a 	nor	r3,zero,r3
  80365c:	1886703a 	and	r3,r3,r2
  803660:	18000c1e 	bne	r3,zero,803694 <strlen+0x64>
  803664:	280d883a 	mov	r6,r5
  803668:	380b883a 	mov	r5,r7
  80366c:	21000104 	addi	r4,r4,4
  803670:	20800017 	ldw	r2,0(r4)
  803674:	1187883a 	add	r3,r2,r6
  803678:	1946703a 	and	r3,r3,r5
  80367c:	0084303a 	nor	r2,zero,r2
  803680:	10c4703a 	and	r2,r2,r3
  803684:	103ff926 	beq	r2,zero,80366c <strlen+0x3c>
  803688:	20800007 	ldb	r2,0(r4)
  80368c:	10000326 	beq	r2,zero,80369c <strlen+0x6c>
  803690:	21000044 	addi	r4,r4,1
  803694:	20800007 	ldb	r2,0(r4)
  803698:	103ffd1e 	bne	r2,zero,803690 <strlen+0x60>
  80369c:	2205c83a 	sub	r2,r4,r8
  8036a0:	f800283a 	ret

008036a4 <strncpy>:
  8036a4:	2904b03a 	or	r2,r5,r4
  8036a8:	108000cc 	andi	r2,r2,3
  8036ac:	00c000c4 	movi	r3,3
  8036b0:	1000291e 	bne	r2,zero,803758 <strncpy+0xb4>
  8036b4:	1980282e 	bgeu	r3,r6,803758 <strncpy+0xb4>
  8036b8:	1817883a 	mov	r11,r3
  8036bc:	2011883a 	mov	r8,r4
  8036c0:	02bfbff4 	movhi	r10,65279
  8036c4:	52bfbfc4 	addi	r10,r10,-257
  8036c8:	02602074 	movhi	r9,32897
  8036cc:	4a602004 	addi	r9,r9,-32640
  8036d0:	29c00017 	ldw	r7,0(r5)
  8036d4:	3a85883a 	add	r2,r7,r10
  8036d8:	01c6303a 	nor	r3,zero,r7
  8036dc:	10c4703a 	and	r2,r2,r3
  8036e0:	1244703a 	and	r2,r2,r9
  8036e4:	1000051e 	bne	r2,zero,8036fc <strncpy+0x58>
  8036e8:	31bfff04 	addi	r6,r6,-4
  8036ec:	41c00015 	stw	r7,0(r8)
  8036f0:	29400104 	addi	r5,r5,4
  8036f4:	42000104 	addi	r8,r8,4
  8036f8:	59bff536 	bltu	r11,r6,8036d0 <strncpy+0x2c>
  8036fc:	400f883a 	mov	r7,r8
  803700:	30001326 	beq	r6,zero,803750 <strncpy+0xac>
  803704:	28800003 	ldbu	r2,0(r5)
  803708:	31bfffc4 	addi	r6,r6,-1
  80370c:	38c00044 	addi	r3,r7,1
  803710:	38800005 	stb	r2,0(r7)
  803714:	10000826 	beq	r2,zero,803738 <strncpy+0x94>
  803718:	29400044 	addi	r5,r5,1
  80371c:	30000c26 	beq	r6,zero,803750 <strncpy+0xac>
  803720:	28800003 	ldbu	r2,0(r5)
  803724:	31bfffc4 	addi	r6,r6,-1
  803728:	29400044 	addi	r5,r5,1
  80372c:	18800005 	stb	r2,0(r3)
  803730:	18c00044 	addi	r3,r3,1
  803734:	103ff91e 	bne	r2,zero,80371c <strncpy+0x78>
  803738:	30000526 	beq	r6,zero,803750 <strncpy+0xac>
  80373c:	1805883a 	mov	r2,r3
  803740:	30cd883a 	add	r6,r6,r3
  803744:	10000005 	stb	zero,0(r2)
  803748:	10800044 	addi	r2,r2,1
  80374c:	30bffd1e 	bne	r6,r2,803744 <strncpy+0xa0>
  803750:	2005883a 	mov	r2,r4
  803754:	f800283a 	ret
  803758:	200f883a 	mov	r7,r4
  80375c:	003fe806 	br	803700 <strncpy+0x5c>

00803760 <__sprint_r>:
  803760:	30800217 	ldw	r2,8(r6)
  803764:	defffe04 	addi	sp,sp,-8
  803768:	dc000015 	stw	r16,0(sp)
  80376c:	dfc00115 	stw	ra,4(sp)
  803770:	3021883a 	mov	r16,r6
  803774:	0007883a 	mov	r3,zero
  803778:	1000061e 	bne	r2,zero,803794 <__sprint_r+0x34>
  80377c:	1805883a 	mov	r2,r3
  803780:	30000115 	stw	zero,4(r6)
  803784:	dfc00117 	ldw	ra,4(sp)
  803788:	dc000017 	ldw	r16,0(sp)
  80378c:	dec00204 	addi	sp,sp,8
  803790:	f800283a 	ret
  803794:	08078c00 	call	8078c0 <__sfvwrite_r>
  803798:	1007883a 	mov	r3,r2
  80379c:	1805883a 	mov	r2,r3
  8037a0:	80000115 	stw	zero,4(r16)
  8037a4:	80000215 	stw	zero,8(r16)
  8037a8:	dfc00117 	ldw	ra,4(sp)
  8037ac:	dc000017 	ldw	r16,0(sp)
  8037b0:	dec00204 	addi	sp,sp,8
  8037b4:	f800283a 	ret

008037b8 <___vfprintf_internal_r>:
  8037b8:	defea404 	addi	sp,sp,-1392
  8037bc:	dd815815 	stw	r22,1376(sp)
  8037c0:	dc015215 	stw	r16,1352(sp)
  8037c4:	d9c15115 	stw	r7,1348(sp)
  8037c8:	dfc15b15 	stw	ra,1388(sp)
  8037cc:	df015a15 	stw	fp,1384(sp)
  8037d0:	ddc15915 	stw	r23,1380(sp)
  8037d4:	dd415715 	stw	r21,1372(sp)
  8037d8:	dd015615 	stw	r20,1368(sp)
  8037dc:	dcc15515 	stw	r19,1364(sp)
  8037e0:	dc815415 	stw	r18,1360(sp)
  8037e4:	dc415315 	stw	r17,1356(sp)
  8037e8:	282d883a 	mov	r22,r5
  8037ec:	3021883a 	mov	r16,r6
  8037f0:	d9014f15 	stw	r4,1340(sp)
  8037f4:	0807ee40 	call	807ee4 <_localeconv_r>
  8037f8:	10800017 	ldw	r2,0(r2)
  8037fc:	d9c15117 	ldw	r7,1348(sp)
  803800:	d8814915 	stw	r2,1316(sp)
  803804:	d8814f17 	ldw	r2,1340(sp)
  803808:	10000226 	beq	r2,zero,803814 <___vfprintf_internal_r+0x5c>
  80380c:	10800e17 	ldw	r2,56(r2)
  803810:	10020d26 	beq	r2,zero,804048 <___vfprintf_internal_r+0x890>
  803814:	b080030b 	ldhu	r2,12(r22)
  803818:	1080020c 	andi	r2,r2,8
  80381c:	10020e26 	beq	r2,zero,804058 <___vfprintf_internal_r+0x8a0>
  803820:	b0800417 	ldw	r2,16(r22)
  803824:	10020c26 	beq	r2,zero,804058 <___vfprintf_internal_r+0x8a0>
  803828:	b200030b 	ldhu	r8,12(r22)
  80382c:	00800284 	movi	r2,10
  803830:	40c0068c 	andi	r3,r8,26
  803834:	18802f1e 	bne	r3,r2,8038f4 <___vfprintf_internal_r+0x13c>
  803838:	b080038f 	ldh	r2,14(r22)
  80383c:	10002d16 	blt	r2,zero,8038f4 <___vfprintf_internal_r+0x13c>
  803840:	b240038b 	ldhu	r9,14(r22)
  803844:	b2800717 	ldw	r10,28(r22)
  803848:	b2c00917 	ldw	r11,36(r22)
  80384c:	d9014f17 	ldw	r4,1340(sp)
  803850:	dc402904 	addi	r17,sp,164
  803854:	d8804004 	addi	r2,sp,256
  803858:	00c10004 	movi	r3,1024
  80385c:	423fff4c 	andi	r8,r8,65533
  803860:	800d883a 	mov	r6,r16
  803864:	880b883a 	mov	r5,r17
  803868:	da002c0d 	sth	r8,176(sp)
  80386c:	da402c8d 	sth	r9,178(sp)
  803870:	da803015 	stw	r10,192(sp)
  803874:	dac03215 	stw	r11,200(sp)
  803878:	d8802d15 	stw	r2,180(sp)
  80387c:	d8c02e15 	stw	r3,184(sp)
  803880:	d8802915 	stw	r2,164(sp)
  803884:	d8c02b15 	stw	r3,172(sp)
  803888:	d8002f15 	stw	zero,188(sp)
  80388c:	08037b80 	call	8037b8 <___vfprintf_internal_r>
  803890:	d8814b15 	stw	r2,1324(sp)
  803894:	10000416 	blt	r2,zero,8038a8 <___vfprintf_internal_r+0xf0>
  803898:	d9014f17 	ldw	r4,1340(sp)
  80389c:	880b883a 	mov	r5,r17
  8038a0:	0806f900 	call	806f90 <_fflush_r>
  8038a4:	1002321e 	bne	r2,zero,804170 <___vfprintf_internal_r+0x9b8>
  8038a8:	d8802c0b 	ldhu	r2,176(sp)
  8038ac:	1080100c 	andi	r2,r2,64
  8038b0:	10000326 	beq	r2,zero,8038c0 <___vfprintf_internal_r+0x108>
  8038b4:	b080030b 	ldhu	r2,12(r22)
  8038b8:	10801014 	ori	r2,r2,64
  8038bc:	b080030d 	sth	r2,12(r22)
  8038c0:	d8814b17 	ldw	r2,1324(sp)
  8038c4:	dfc15b17 	ldw	ra,1388(sp)
  8038c8:	df015a17 	ldw	fp,1384(sp)
  8038cc:	ddc15917 	ldw	r23,1380(sp)
  8038d0:	dd815817 	ldw	r22,1376(sp)
  8038d4:	dd415717 	ldw	r21,1372(sp)
  8038d8:	dd015617 	ldw	r20,1368(sp)
  8038dc:	dcc15517 	ldw	r19,1364(sp)
  8038e0:	dc815417 	ldw	r18,1360(sp)
  8038e4:	dc415317 	ldw	r17,1356(sp)
  8038e8:	dc015217 	ldw	r16,1352(sp)
  8038ec:	dec15c04 	addi	sp,sp,1392
  8038f0:	f800283a 	ret
  8038f4:	0005883a 	mov	r2,zero
  8038f8:	0007883a 	mov	r3,zero
  8038fc:	dd401904 	addi	r21,sp,100
  803900:	d8814215 	stw	r2,1288(sp)
  803904:	802f883a 	mov	r23,r16
  803908:	d8c14315 	stw	r3,1292(sp)
  80390c:	d8014b15 	stw	zero,1324(sp)
  803910:	d8014815 	stw	zero,1312(sp)
  803914:	d8014415 	stw	zero,1296(sp)
  803918:	d8014715 	stw	zero,1308(sp)
  80391c:	dd400c15 	stw	r21,48(sp)
  803920:	d8000e15 	stw	zero,56(sp)
  803924:	d8000d15 	stw	zero,52(sp)
  803928:	b8800007 	ldb	r2,0(r23)
  80392c:	10001926 	beq	r2,zero,803994 <___vfprintf_internal_r+0x1dc>
  803930:	00c00944 	movi	r3,37
  803934:	10c01726 	beq	r2,r3,803994 <___vfprintf_internal_r+0x1dc>
  803938:	b821883a 	mov	r16,r23
  80393c:	00000106 	br	803944 <___vfprintf_internal_r+0x18c>
  803940:	10c00326 	beq	r2,r3,803950 <___vfprintf_internal_r+0x198>
  803944:	84000044 	addi	r16,r16,1
  803948:	80800007 	ldb	r2,0(r16)
  80394c:	103ffc1e 	bne	r2,zero,803940 <___vfprintf_internal_r+0x188>
  803950:	85e7c83a 	sub	r19,r16,r23
  803954:	98000e26 	beq	r19,zero,803990 <___vfprintf_internal_r+0x1d8>
  803958:	dc800e17 	ldw	r18,56(sp)
  80395c:	dc400d17 	ldw	r17,52(sp)
  803960:	008001c4 	movi	r2,7
  803964:	94e5883a 	add	r18,r18,r19
  803968:	8c400044 	addi	r17,r17,1
  80396c:	adc00015 	stw	r23,0(r21)
  803970:	dc800e15 	stw	r18,56(sp)
  803974:	acc00115 	stw	r19,4(r21)
  803978:	dc400d15 	stw	r17,52(sp)
  80397c:	14428b16 	blt	r2,r17,8043ac <___vfprintf_internal_r+0xbf4>
  803980:	ad400204 	addi	r21,r21,8
  803984:	d9014b17 	ldw	r4,1324(sp)
  803988:	24c9883a 	add	r4,r4,r19
  80398c:	d9014b15 	stw	r4,1324(sp)
  803990:	802f883a 	mov	r23,r16
  803994:	b8800007 	ldb	r2,0(r23)
  803998:	10013c26 	beq	r2,zero,803e8c <___vfprintf_internal_r+0x6d4>
  80399c:	bdc00044 	addi	r23,r23,1
  8039a0:	d8000405 	stb	zero,16(sp)
  8039a4:	b8c00007 	ldb	r3,0(r23)
  8039a8:	04ffffc4 	movi	r19,-1
  8039ac:	d8014c15 	stw	zero,1328(sp)
  8039b0:	d8014a15 	stw	zero,1320(sp)
  8039b4:	d8c14d15 	stw	r3,1332(sp)
  8039b8:	bdc00044 	addi	r23,r23,1
  8039bc:	d9414d17 	ldw	r5,1332(sp)
  8039c0:	00801604 	movi	r2,88
  8039c4:	28fff804 	addi	r3,r5,-32
  8039c8:	10c06036 	bltu	r2,r3,803b4c <___vfprintf_internal_r+0x394>
  8039cc:	18c5883a 	add	r2,r3,r3
  8039d0:	1085883a 	add	r2,r2,r2
  8039d4:	00c02034 	movhi	r3,128
  8039d8:	18ce7a04 	addi	r3,r3,14824
  8039dc:	10c5883a 	add	r2,r2,r3
  8039e0:	11000017 	ldw	r4,0(r2)
  8039e4:	2000683a 	jmp	r4
  8039e8:	0080495c 	xori	r2,zero,293
  8039ec:	00803b4c 	andi	r2,zero,237
  8039f0:	00803b4c 	andi	r2,zero,237
  8039f4:	00804948 	cmpgei	r2,zero,293
  8039f8:	00803b4c 	andi	r2,zero,237
  8039fc:	00803b4c 	andi	r2,zero,237
  803a00:	00803b4c 	andi	r2,zero,237
  803a04:	00803b4c 	andi	r2,zero,237
  803a08:	00803b4c 	andi	r2,zero,237
  803a0c:	00803b4c 	andi	r2,zero,237
  803a10:	00804728 	cmpgeui	r2,zero,284
  803a14:	00804938 	rdprs	r2,zero,292
  803a18:	00803b4c 	andi	r2,zero,237
  803a1c:	00804740 	call	80474 <__alt_mem_sdram-0x77fb8c>
  803a20:	008049d4 	movui	r2,295
  803a24:	00803b4c 	andi	r2,zero,237
  803a28:	008049c0 	call	8049c <__alt_mem_sdram-0x77fb64>
  803a2c:	00804988 	cmpgei	r2,zero,294
  803a30:	00804988 	cmpgei	r2,zero,294
  803a34:	00804988 	cmpgei	r2,zero,294
  803a38:	00804988 	cmpgei	r2,zero,294
  803a3c:	00804988 	cmpgei	r2,zero,294
  803a40:	00804988 	cmpgei	r2,zero,294
  803a44:	00804988 	cmpgei	r2,zero,294
  803a48:	00804988 	cmpgei	r2,zero,294
  803a4c:	00804988 	cmpgei	r2,zero,294
  803a50:	00803b4c 	andi	r2,zero,237
  803a54:	00803b4c 	andi	r2,zero,237
  803a58:	00803b4c 	andi	r2,zero,237
  803a5c:	00803b4c 	andi	r2,zero,237
  803a60:	00803b4c 	andi	r2,zero,237
  803a64:	00803b4c 	andi	r2,zero,237
  803a68:	00803b4c 	andi	r2,zero,237
  803a6c:	00803b4c 	andi	r2,zero,237
  803a70:	00803b4c 	andi	r2,zero,237
  803a74:	00803b4c 	andi	r2,zero,237
  803a78:	008041a4 	muli	r2,zero,262
  803a7c:	00804810 	cmplti	r2,zero,288
  803a80:	00803b4c 	andi	r2,zero,237
  803a84:	00804810 	cmplti	r2,zero,288
  803a88:	00803b4c 	andi	r2,zero,237
  803a8c:	00803b4c 	andi	r2,zero,237
  803a90:	00803b4c 	andi	r2,zero,237
  803a94:	00803b4c 	andi	r2,zero,237
  803a98:	00804974 	movhi	r2,293
  803a9c:	00803b4c 	andi	r2,zero,237
  803aa0:	00803b4c 	andi	r2,zero,237
  803aa4:	00804258 	cmpnei	r2,zero,265
  803aa8:	00803b4c 	andi	r2,zero,237
  803aac:	00803b4c 	andi	r2,zero,237
  803ab0:	00803b4c 	andi	r2,zero,237
  803ab4:	00803b4c 	andi	r2,zero,237
  803ab8:	00803b4c 	andi	r2,zero,237
  803abc:	008042a4 	muli	r2,zero,266
  803ac0:	00803b4c 	andi	r2,zero,237
  803ac4:	00803b4c 	andi	r2,zero,237
  803ac8:	008048c4 	movi	r2,291
  803acc:	00803b4c 	andi	r2,zero,237
  803ad0:	00803b4c 	andi	r2,zero,237
  803ad4:	00803b4c 	andi	r2,zero,237
  803ad8:	00803b4c 	andi	r2,zero,237
  803adc:	00803b4c 	andi	r2,zero,237
  803ae0:	00803b4c 	andi	r2,zero,237
  803ae4:	00803b4c 	andi	r2,zero,237
  803ae8:	00803b4c 	andi	r2,zero,237
  803aec:	00803b4c 	andi	r2,zero,237
  803af0:	00803b4c 	andi	r2,zero,237
  803af4:	00804898 	cmpnei	r2,zero,290
  803af8:	008041b0 	cmpltui	r2,zero,262
  803afc:	00804810 	cmplti	r2,zero,288
  803b00:	00804810 	cmplti	r2,zero,288
  803b04:	00804810 	cmplti	r2,zero,288
  803b08:	008047fc 	xorhi	r2,zero,287
  803b0c:	008041b0 	cmpltui	r2,zero,262
  803b10:	00803b4c 	andi	r2,zero,237
  803b14:	00803b4c 	andi	r2,zero,237
  803b18:	00804784 	movi	r2,286
  803b1c:	00803b4c 	andi	r2,zero,237
  803b20:	00804754 	movui	r2,285
  803b24:	00804264 	muli	r2,zero,265
  803b28:	008047b4 	movhi	r2,286
  803b2c:	008047a0 	cmpeqi	r2,zero,286
  803b30:	00803b4c 	andi	r2,zero,237
  803b34:	00804a30 	cmpltui	r2,zero,296
  803b38:	00803b4c 	andi	r2,zero,237
  803b3c:	008042b0 	cmpltui	r2,zero,266
  803b40:	00803b4c 	andi	r2,zero,237
  803b44:	00803b4c 	andi	r2,zero,237
  803b48:	00804928 	cmpgeui	r2,zero,292
  803b4c:	d9014d17 	ldw	r4,1332(sp)
  803b50:	2000ce26 	beq	r4,zero,803e8c <___vfprintf_internal_r+0x6d4>
  803b54:	01400044 	movi	r5,1
  803b58:	d9800f04 	addi	r6,sp,60
  803b5c:	d9c14015 	stw	r7,1280(sp)
  803b60:	d9414515 	stw	r5,1300(sp)
  803b64:	d9814115 	stw	r6,1284(sp)
  803b68:	280f883a 	mov	r7,r5
  803b6c:	d9000f05 	stb	r4,60(sp)
  803b70:	d8000405 	stb	zero,16(sp)
  803b74:	d8014615 	stw	zero,1304(sp)
  803b78:	d8c14c17 	ldw	r3,1328(sp)
  803b7c:	1880008c 	andi	r2,r3,2
  803b80:	1005003a 	cmpeq	r2,r2,zero
  803b84:	d8815015 	stw	r2,1344(sp)
  803b88:	1000031e 	bne	r2,zero,803b98 <___vfprintf_internal_r+0x3e0>
  803b8c:	d9014517 	ldw	r4,1300(sp)
  803b90:	21000084 	addi	r4,r4,2
  803b94:	d9014515 	stw	r4,1300(sp)
  803b98:	d9414c17 	ldw	r5,1328(sp)
  803b9c:	2940210c 	andi	r5,r5,132
  803ba0:	d9414e15 	stw	r5,1336(sp)
  803ba4:	28002d1e 	bne	r5,zero,803c5c <___vfprintf_internal_r+0x4a4>
  803ba8:	d9814a17 	ldw	r6,1320(sp)
  803bac:	d8814517 	ldw	r2,1300(sp)
  803bb0:	30a1c83a 	sub	r16,r6,r2
  803bb4:	0400290e 	bge	zero,r16,803c5c <___vfprintf_internal_r+0x4a4>
  803bb8:	00800404 	movi	r2,16
  803bbc:	1404580e 	bge	r2,r16,804d20 <___vfprintf_internal_r+0x1568>
  803bc0:	dc800e17 	ldw	r18,56(sp)
  803bc4:	dc400d17 	ldw	r17,52(sp)
  803bc8:	1027883a 	mov	r19,r2
  803bcc:	07002074 	movhi	fp,129
  803bd0:	e7002e84 	addi	fp,fp,186
  803bd4:	050001c4 	movi	r20,7
  803bd8:	00000306 	br	803be8 <___vfprintf_internal_r+0x430>
  803bdc:	843ffc04 	addi	r16,r16,-16
  803be0:	ad400204 	addi	r21,r21,8
  803be4:	9c00130e 	bge	r19,r16,803c34 <___vfprintf_internal_r+0x47c>
  803be8:	94800404 	addi	r18,r18,16
  803bec:	8c400044 	addi	r17,r17,1
  803bf0:	af000015 	stw	fp,0(r21)
  803bf4:	acc00115 	stw	r19,4(r21)
  803bf8:	dc800e15 	stw	r18,56(sp)
  803bfc:	dc400d15 	stw	r17,52(sp)
  803c00:	a47ff60e 	bge	r20,r17,803bdc <___vfprintf_internal_r+0x424>
  803c04:	d9014f17 	ldw	r4,1340(sp)
  803c08:	b00b883a 	mov	r5,r22
  803c0c:	d9800c04 	addi	r6,sp,48
  803c10:	d9c15115 	stw	r7,1348(sp)
  803c14:	08037600 	call	803760 <__sprint_r>
  803c18:	d9c15117 	ldw	r7,1348(sp)
  803c1c:	10009e1e 	bne	r2,zero,803e98 <___vfprintf_internal_r+0x6e0>
  803c20:	843ffc04 	addi	r16,r16,-16
  803c24:	dc800e17 	ldw	r18,56(sp)
  803c28:	dc400d17 	ldw	r17,52(sp)
  803c2c:	dd401904 	addi	r21,sp,100
  803c30:	9c3fed16 	blt	r19,r16,803be8 <___vfprintf_internal_r+0x430>
  803c34:	9425883a 	add	r18,r18,r16
  803c38:	8c400044 	addi	r17,r17,1
  803c3c:	008001c4 	movi	r2,7
  803c40:	af000015 	stw	fp,0(r21)
  803c44:	ac000115 	stw	r16,4(r21)
  803c48:	dc800e15 	stw	r18,56(sp)
  803c4c:	dc400d15 	stw	r17,52(sp)
  803c50:	1441f516 	blt	r2,r17,804428 <___vfprintf_internal_r+0xc70>
  803c54:	ad400204 	addi	r21,r21,8
  803c58:	00000206 	br	803c64 <___vfprintf_internal_r+0x4ac>
  803c5c:	dc800e17 	ldw	r18,56(sp)
  803c60:	dc400d17 	ldw	r17,52(sp)
  803c64:	d8800407 	ldb	r2,16(sp)
  803c68:	10000b26 	beq	r2,zero,803c98 <___vfprintf_internal_r+0x4e0>
  803c6c:	00800044 	movi	r2,1
  803c70:	94800044 	addi	r18,r18,1
  803c74:	8c400044 	addi	r17,r17,1
  803c78:	a8800115 	stw	r2,4(r21)
  803c7c:	d8c00404 	addi	r3,sp,16
  803c80:	008001c4 	movi	r2,7
  803c84:	a8c00015 	stw	r3,0(r21)
  803c88:	dc800e15 	stw	r18,56(sp)
  803c8c:	dc400d15 	stw	r17,52(sp)
  803c90:	1441da16 	blt	r2,r17,8043fc <___vfprintf_internal_r+0xc44>
  803c94:	ad400204 	addi	r21,r21,8
  803c98:	d9015017 	ldw	r4,1344(sp)
  803c9c:	20000b1e 	bne	r4,zero,803ccc <___vfprintf_internal_r+0x514>
  803ca0:	d8800444 	addi	r2,sp,17
  803ca4:	94800084 	addi	r18,r18,2
  803ca8:	8c400044 	addi	r17,r17,1
  803cac:	a8800015 	stw	r2,0(r21)
  803cb0:	00c00084 	movi	r3,2
  803cb4:	008001c4 	movi	r2,7
  803cb8:	a8c00115 	stw	r3,4(r21)
  803cbc:	dc800e15 	stw	r18,56(sp)
  803cc0:	dc400d15 	stw	r17,52(sp)
  803cc4:	1441c216 	blt	r2,r17,8043d0 <___vfprintf_internal_r+0xc18>
  803cc8:	ad400204 	addi	r21,r21,8
  803ccc:	d9414e17 	ldw	r5,1336(sp)
  803cd0:	00802004 	movi	r2,128
  803cd4:	2880b126 	beq	r5,r2,803f9c <___vfprintf_internal_r+0x7e4>
  803cd8:	d8c14617 	ldw	r3,1304(sp)
  803cdc:	19e1c83a 	sub	r16,r3,r7
  803ce0:	0400260e 	bge	zero,r16,803d7c <___vfprintf_internal_r+0x5c4>
  803ce4:	00800404 	movi	r2,16
  803ce8:	1403c90e 	bge	r2,r16,804c10 <___vfprintf_internal_r+0x1458>
  803cec:	1027883a 	mov	r19,r2
  803cf0:	07002074 	movhi	fp,129
  803cf4:	e7002a84 	addi	fp,fp,170
  803cf8:	050001c4 	movi	r20,7
  803cfc:	00000306 	br	803d0c <___vfprintf_internal_r+0x554>
  803d00:	843ffc04 	addi	r16,r16,-16
  803d04:	ad400204 	addi	r21,r21,8
  803d08:	9c00130e 	bge	r19,r16,803d58 <___vfprintf_internal_r+0x5a0>
  803d0c:	94800404 	addi	r18,r18,16
  803d10:	8c400044 	addi	r17,r17,1
  803d14:	af000015 	stw	fp,0(r21)
  803d18:	acc00115 	stw	r19,4(r21)
  803d1c:	dc800e15 	stw	r18,56(sp)
  803d20:	dc400d15 	stw	r17,52(sp)
  803d24:	a47ff60e 	bge	r20,r17,803d00 <___vfprintf_internal_r+0x548>
  803d28:	d9014f17 	ldw	r4,1340(sp)
  803d2c:	b00b883a 	mov	r5,r22
  803d30:	d9800c04 	addi	r6,sp,48
  803d34:	d9c15115 	stw	r7,1348(sp)
  803d38:	08037600 	call	803760 <__sprint_r>
  803d3c:	d9c15117 	ldw	r7,1348(sp)
  803d40:	1000551e 	bne	r2,zero,803e98 <___vfprintf_internal_r+0x6e0>
  803d44:	843ffc04 	addi	r16,r16,-16
  803d48:	dc800e17 	ldw	r18,56(sp)
  803d4c:	dc400d17 	ldw	r17,52(sp)
  803d50:	dd401904 	addi	r21,sp,100
  803d54:	9c3fed16 	blt	r19,r16,803d0c <___vfprintf_internal_r+0x554>
  803d58:	9425883a 	add	r18,r18,r16
  803d5c:	8c400044 	addi	r17,r17,1
  803d60:	008001c4 	movi	r2,7
  803d64:	af000015 	stw	fp,0(r21)
  803d68:	ac000115 	stw	r16,4(r21)
  803d6c:	dc800e15 	stw	r18,56(sp)
  803d70:	dc400d15 	stw	r17,52(sp)
  803d74:	14418216 	blt	r2,r17,804380 <___vfprintf_internal_r+0xbc8>
  803d78:	ad400204 	addi	r21,r21,8
  803d7c:	d9014c17 	ldw	r4,1328(sp)
  803d80:	2080400c 	andi	r2,r4,256
  803d84:	10004a1e 	bne	r2,zero,803eb0 <___vfprintf_internal_r+0x6f8>
  803d88:	d9414117 	ldw	r5,1284(sp)
  803d8c:	91e5883a 	add	r18,r18,r7
  803d90:	8c400044 	addi	r17,r17,1
  803d94:	008001c4 	movi	r2,7
  803d98:	a9400015 	stw	r5,0(r21)
  803d9c:	a9c00115 	stw	r7,4(r21)
  803da0:	dc800e15 	stw	r18,56(sp)
  803da4:	dc400d15 	stw	r17,52(sp)
  803da8:	14416716 	blt	r2,r17,804348 <___vfprintf_internal_r+0xb90>
  803dac:	a8c00204 	addi	r3,r21,8
  803db0:	d9814c17 	ldw	r6,1328(sp)
  803db4:	3080010c 	andi	r2,r6,4
  803db8:	10002826 	beq	r2,zero,803e5c <___vfprintf_internal_r+0x6a4>
  803dbc:	d8814a17 	ldw	r2,1320(sp)
  803dc0:	d9014517 	ldw	r4,1300(sp)
  803dc4:	1121c83a 	sub	r16,r2,r4
  803dc8:	0400240e 	bge	zero,r16,803e5c <___vfprintf_internal_r+0x6a4>
  803dcc:	00800404 	movi	r2,16
  803dd0:	14044f0e 	bge	r2,r16,804f10 <___vfprintf_internal_r+0x1758>
  803dd4:	dc400d17 	ldw	r17,52(sp)
  803dd8:	1027883a 	mov	r19,r2
  803ddc:	07002074 	movhi	fp,129
  803de0:	e7002e84 	addi	fp,fp,186
  803de4:	050001c4 	movi	r20,7
  803de8:	00000306 	br	803df8 <___vfprintf_internal_r+0x640>
  803dec:	843ffc04 	addi	r16,r16,-16
  803df0:	18c00204 	addi	r3,r3,8
  803df4:	9c00110e 	bge	r19,r16,803e3c <___vfprintf_internal_r+0x684>
  803df8:	94800404 	addi	r18,r18,16
  803dfc:	8c400044 	addi	r17,r17,1
  803e00:	1f000015 	stw	fp,0(r3)
  803e04:	1cc00115 	stw	r19,4(r3)
  803e08:	dc800e15 	stw	r18,56(sp)
  803e0c:	dc400d15 	stw	r17,52(sp)
  803e10:	a47ff60e 	bge	r20,r17,803dec <___vfprintf_internal_r+0x634>
  803e14:	d9014f17 	ldw	r4,1340(sp)
  803e18:	b00b883a 	mov	r5,r22
  803e1c:	d9800c04 	addi	r6,sp,48
  803e20:	08037600 	call	803760 <__sprint_r>
  803e24:	10001c1e 	bne	r2,zero,803e98 <___vfprintf_internal_r+0x6e0>
  803e28:	843ffc04 	addi	r16,r16,-16
  803e2c:	dc800e17 	ldw	r18,56(sp)
  803e30:	dc400d17 	ldw	r17,52(sp)
  803e34:	d8c01904 	addi	r3,sp,100
  803e38:	9c3fef16 	blt	r19,r16,803df8 <___vfprintf_internal_r+0x640>
  803e3c:	9425883a 	add	r18,r18,r16
  803e40:	8c400044 	addi	r17,r17,1
  803e44:	008001c4 	movi	r2,7
  803e48:	1f000015 	stw	fp,0(r3)
  803e4c:	1c000115 	stw	r16,4(r3)
  803e50:	dc800e15 	stw	r18,56(sp)
  803e54:	dc400d15 	stw	r17,52(sp)
  803e58:	1440cb16 	blt	r2,r17,804188 <___vfprintf_internal_r+0x9d0>
  803e5c:	d8814a17 	ldw	r2,1320(sp)
  803e60:	d9414517 	ldw	r5,1300(sp)
  803e64:	1140010e 	bge	r2,r5,803e6c <___vfprintf_internal_r+0x6b4>
  803e68:	2805883a 	mov	r2,r5
  803e6c:	d9814b17 	ldw	r6,1324(sp)
  803e70:	308d883a 	add	r6,r6,r2
  803e74:	d9814b15 	stw	r6,1324(sp)
  803e78:	90013b1e 	bne	r18,zero,804368 <___vfprintf_internal_r+0xbb0>
  803e7c:	d9c14017 	ldw	r7,1280(sp)
  803e80:	dd401904 	addi	r21,sp,100
  803e84:	d8000d15 	stw	zero,52(sp)
  803e88:	003ea706 	br	803928 <___vfprintf_internal_r+0x170>
  803e8c:	d8800e17 	ldw	r2,56(sp)
  803e90:	10053f1e 	bne	r2,zero,805390 <___vfprintf_internal_r+0x1bd8>
  803e94:	d8000d15 	stw	zero,52(sp)
  803e98:	b080030b 	ldhu	r2,12(r22)
  803e9c:	1080100c 	andi	r2,r2,64
  803ea0:	103e8726 	beq	r2,zero,8038c0 <___vfprintf_internal_r+0x108>
  803ea4:	00bfffc4 	movi	r2,-1
  803ea8:	d8814b15 	stw	r2,1324(sp)
  803eac:	003e8406 	br	8038c0 <___vfprintf_internal_r+0x108>
  803eb0:	d9814d17 	ldw	r6,1332(sp)
  803eb4:	00801944 	movi	r2,101
  803eb8:	11806e16 	blt	r2,r6,804074 <___vfprintf_internal_r+0x8bc>
  803ebc:	d9414717 	ldw	r5,1308(sp)
  803ec0:	00c00044 	movi	r3,1
  803ec4:	1943430e 	bge	r3,r5,804bd4 <___vfprintf_internal_r+0x141c>
  803ec8:	d8814117 	ldw	r2,1284(sp)
  803ecc:	94800044 	addi	r18,r18,1
  803ed0:	8c400044 	addi	r17,r17,1
  803ed4:	a8800015 	stw	r2,0(r21)
  803ed8:	008001c4 	movi	r2,7
  803edc:	a8c00115 	stw	r3,4(r21)
  803ee0:	dc800e15 	stw	r18,56(sp)
  803ee4:	dc400d15 	stw	r17,52(sp)
  803ee8:	1441ca16 	blt	r2,r17,804614 <___vfprintf_internal_r+0xe5c>
  803eec:	a8c00204 	addi	r3,r21,8
  803ef0:	d9014917 	ldw	r4,1316(sp)
  803ef4:	00800044 	movi	r2,1
  803ef8:	94800044 	addi	r18,r18,1
  803efc:	8c400044 	addi	r17,r17,1
  803f00:	18800115 	stw	r2,4(r3)
  803f04:	008001c4 	movi	r2,7
  803f08:	19000015 	stw	r4,0(r3)
  803f0c:	dc800e15 	stw	r18,56(sp)
  803f10:	dc400d15 	stw	r17,52(sp)
  803f14:	1441b616 	blt	r2,r17,8045f0 <___vfprintf_internal_r+0xe38>
  803f18:	1cc00204 	addi	r19,r3,8
  803f1c:	d9014217 	ldw	r4,1288(sp)
  803f20:	d9414317 	ldw	r5,1292(sp)
  803f24:	000d883a 	mov	r6,zero
  803f28:	000f883a 	mov	r7,zero
  803f2c:	080b1c40 	call	80b1c4 <__nedf2>
  803f30:	10017426 	beq	r2,zero,804504 <___vfprintf_internal_r+0xd4c>
  803f34:	d9414717 	ldw	r5,1308(sp)
  803f38:	d9814117 	ldw	r6,1284(sp)
  803f3c:	8c400044 	addi	r17,r17,1
  803f40:	2c85883a 	add	r2,r5,r18
  803f44:	14bfffc4 	addi	r18,r2,-1
  803f48:	28bfffc4 	addi	r2,r5,-1
  803f4c:	30c00044 	addi	r3,r6,1
  803f50:	98800115 	stw	r2,4(r19)
  803f54:	008001c4 	movi	r2,7
  803f58:	98c00015 	stw	r3,0(r19)
  803f5c:	dc800e15 	stw	r18,56(sp)
  803f60:	dc400d15 	stw	r17,52(sp)
  803f64:	14418e16 	blt	r2,r17,8045a0 <___vfprintf_internal_r+0xde8>
  803f68:	9cc00204 	addi	r19,r19,8
  803f6c:	d9414817 	ldw	r5,1312(sp)
  803f70:	d8800804 	addi	r2,sp,32
  803f74:	8c400044 	addi	r17,r17,1
  803f78:	9165883a 	add	r18,r18,r5
  803f7c:	98800015 	stw	r2,0(r19)
  803f80:	008001c4 	movi	r2,7
  803f84:	99400115 	stw	r5,4(r19)
  803f88:	dc800e15 	stw	r18,56(sp)
  803f8c:	dc400d15 	stw	r17,52(sp)
  803f90:	1440ed16 	blt	r2,r17,804348 <___vfprintf_internal_r+0xb90>
  803f94:	98c00204 	addi	r3,r19,8
  803f98:	003f8506 	br	803db0 <___vfprintf_internal_r+0x5f8>
  803f9c:	d9814a17 	ldw	r6,1320(sp)
  803fa0:	d8814517 	ldw	r2,1300(sp)
  803fa4:	30a1c83a 	sub	r16,r6,r2
  803fa8:	043f4b0e 	bge	zero,r16,803cd8 <___vfprintf_internal_r+0x520>
  803fac:	00800404 	movi	r2,16
  803fb0:	1404340e 	bge	r2,r16,805084 <___vfprintf_internal_r+0x18cc>
  803fb4:	1027883a 	mov	r19,r2
  803fb8:	07002074 	movhi	fp,129
  803fbc:	e7002a84 	addi	fp,fp,170
  803fc0:	050001c4 	movi	r20,7
  803fc4:	00000306 	br	803fd4 <___vfprintf_internal_r+0x81c>
  803fc8:	843ffc04 	addi	r16,r16,-16
  803fcc:	ad400204 	addi	r21,r21,8
  803fd0:	9c00130e 	bge	r19,r16,804020 <___vfprintf_internal_r+0x868>
  803fd4:	94800404 	addi	r18,r18,16
  803fd8:	8c400044 	addi	r17,r17,1
  803fdc:	af000015 	stw	fp,0(r21)
  803fe0:	acc00115 	stw	r19,4(r21)
  803fe4:	dc800e15 	stw	r18,56(sp)
  803fe8:	dc400d15 	stw	r17,52(sp)
  803fec:	a47ff60e 	bge	r20,r17,803fc8 <___vfprintf_internal_r+0x810>
  803ff0:	d9014f17 	ldw	r4,1340(sp)
  803ff4:	b00b883a 	mov	r5,r22
  803ff8:	d9800c04 	addi	r6,sp,48
  803ffc:	d9c15115 	stw	r7,1348(sp)
  804000:	08037600 	call	803760 <__sprint_r>
  804004:	d9c15117 	ldw	r7,1348(sp)
  804008:	103fa31e 	bne	r2,zero,803e98 <___vfprintf_internal_r+0x6e0>
  80400c:	843ffc04 	addi	r16,r16,-16
  804010:	dc800e17 	ldw	r18,56(sp)
  804014:	dc400d17 	ldw	r17,52(sp)
  804018:	dd401904 	addi	r21,sp,100
  80401c:	9c3fed16 	blt	r19,r16,803fd4 <___vfprintf_internal_r+0x81c>
  804020:	9425883a 	add	r18,r18,r16
  804024:	8c400044 	addi	r17,r17,1
  804028:	008001c4 	movi	r2,7
  80402c:	af000015 	stw	fp,0(r21)
  804030:	ac000115 	stw	r16,4(r21)
  804034:	dc800e15 	stw	r18,56(sp)
  804038:	dc400d15 	stw	r17,52(sp)
  80403c:	14416116 	blt	r2,r17,8045c4 <___vfprintf_internal_r+0xe0c>
  804040:	ad400204 	addi	r21,r21,8
  804044:	003f2406 	br	803cd8 <___vfprintf_internal_r+0x520>
  804048:	d9014f17 	ldw	r4,1340(sp)
  80404c:	08072280 	call	807228 <__sinit>
  804050:	d9c15117 	ldw	r7,1348(sp)
  804054:	003def06 	br	803814 <___vfprintf_internal_r+0x5c>
  804058:	d9014f17 	ldw	r4,1340(sp)
  80405c:	b00b883a 	mov	r5,r22
  804060:	d9c15115 	stw	r7,1348(sp)
  804064:	08056880 	call	805688 <__swsetup_r>
  804068:	d9c15117 	ldw	r7,1348(sp)
  80406c:	103dee26 	beq	r2,zero,803828 <___vfprintf_internal_r+0x70>
  804070:	003f8c06 	br	803ea4 <___vfprintf_internal_r+0x6ec>
  804074:	d9014217 	ldw	r4,1288(sp)
  804078:	d9414317 	ldw	r5,1292(sp)
  80407c:	000d883a 	mov	r6,zero
  804080:	000f883a 	mov	r7,zero
  804084:	080b13c0 	call	80b13c <__eqdf2>
  804088:	1000f21e 	bne	r2,zero,804454 <___vfprintf_internal_r+0xc9c>
  80408c:	00802074 	movhi	r2,129
  804090:	10802a04 	addi	r2,r2,168
  804094:	94800044 	addi	r18,r18,1
  804098:	8c400044 	addi	r17,r17,1
  80409c:	a8800015 	stw	r2,0(r21)
  8040a0:	00c00044 	movi	r3,1
  8040a4:	008001c4 	movi	r2,7
  8040a8:	a8c00115 	stw	r3,4(r21)
  8040ac:	dc800e15 	stw	r18,56(sp)
  8040b0:	dc400d15 	stw	r17,52(sp)
  8040b4:	1442fa16 	blt	r2,r17,804ca0 <___vfprintf_internal_r+0x14e8>
  8040b8:	a8c00204 	addi	r3,r21,8
  8040bc:	d8800517 	ldw	r2,20(sp)
  8040c0:	d9014717 	ldw	r4,1308(sp)
  8040c4:	11015c0e 	bge	r2,r4,804638 <___vfprintf_internal_r+0xe80>
  8040c8:	dc400d17 	ldw	r17,52(sp)
  8040cc:	d9814917 	ldw	r6,1316(sp)
  8040d0:	00800044 	movi	r2,1
  8040d4:	94800044 	addi	r18,r18,1
  8040d8:	8c400044 	addi	r17,r17,1
  8040dc:	18800115 	stw	r2,4(r3)
  8040e0:	008001c4 	movi	r2,7
  8040e4:	19800015 	stw	r6,0(r3)
  8040e8:	dc800e15 	stw	r18,56(sp)
  8040ec:	dc400d15 	stw	r17,52(sp)
  8040f0:	14431016 	blt	r2,r17,804d34 <___vfprintf_internal_r+0x157c>
  8040f4:	18c00204 	addi	r3,r3,8
  8040f8:	d8814717 	ldw	r2,1308(sp)
  8040fc:	143fffc4 	addi	r16,r2,-1
  804100:	043f2b0e 	bge	zero,r16,803db0 <___vfprintf_internal_r+0x5f8>
  804104:	00800404 	movi	r2,16
  804108:	1402a20e 	bge	r2,r16,804b94 <___vfprintf_internal_r+0x13dc>
  80410c:	dc400d17 	ldw	r17,52(sp)
  804110:	1027883a 	mov	r19,r2
  804114:	07002074 	movhi	fp,129
  804118:	e7002a84 	addi	fp,fp,170
  80411c:	050001c4 	movi	r20,7
  804120:	00000306 	br	804130 <___vfprintf_internal_r+0x978>
  804124:	18c00204 	addi	r3,r3,8
  804128:	843ffc04 	addi	r16,r16,-16
  80412c:	9c029c0e 	bge	r19,r16,804ba0 <___vfprintf_internal_r+0x13e8>
  804130:	94800404 	addi	r18,r18,16
  804134:	8c400044 	addi	r17,r17,1
  804138:	1f000015 	stw	fp,0(r3)
  80413c:	1cc00115 	stw	r19,4(r3)
  804140:	dc800e15 	stw	r18,56(sp)
  804144:	dc400d15 	stw	r17,52(sp)
  804148:	a47ff60e 	bge	r20,r17,804124 <___vfprintf_internal_r+0x96c>
  80414c:	d9014f17 	ldw	r4,1340(sp)
  804150:	b00b883a 	mov	r5,r22
  804154:	d9800c04 	addi	r6,sp,48
  804158:	08037600 	call	803760 <__sprint_r>
  80415c:	103f4e1e 	bne	r2,zero,803e98 <___vfprintf_internal_r+0x6e0>
  804160:	dc800e17 	ldw	r18,56(sp)
  804164:	dc400d17 	ldw	r17,52(sp)
  804168:	d8c01904 	addi	r3,sp,100
  80416c:	003fee06 	br	804128 <___vfprintf_internal_r+0x970>
  804170:	d8802c0b 	ldhu	r2,176(sp)
  804174:	00ffffc4 	movi	r3,-1
  804178:	d8c14b15 	stw	r3,1324(sp)
  80417c:	1080100c 	andi	r2,r2,64
  804180:	103dcc1e 	bne	r2,zero,8038b4 <___vfprintf_internal_r+0xfc>
  804184:	003dce06 	br	8038c0 <___vfprintf_internal_r+0x108>
  804188:	d9014f17 	ldw	r4,1340(sp)
  80418c:	b00b883a 	mov	r5,r22
  804190:	d9800c04 	addi	r6,sp,48
  804194:	08037600 	call	803760 <__sprint_r>
  804198:	103f3f1e 	bne	r2,zero,803e98 <___vfprintf_internal_r+0x6e0>
  80419c:	dc800e17 	ldw	r18,56(sp)
  8041a0:	003f2e06 	br	803e5c <___vfprintf_internal_r+0x6a4>
  8041a4:	d9414c17 	ldw	r5,1328(sp)
  8041a8:	29400414 	ori	r5,r5,16
  8041ac:	d9414c15 	stw	r5,1328(sp)
  8041b0:	d9814c17 	ldw	r6,1328(sp)
  8041b4:	3080080c 	andi	r2,r6,32
  8041b8:	10014f1e 	bne	r2,zero,8046f8 <___vfprintf_internal_r+0xf40>
  8041bc:	d8c14c17 	ldw	r3,1328(sp)
  8041c0:	1880040c 	andi	r2,r3,16
  8041c4:	1002ea1e 	bne	r2,zero,804d70 <___vfprintf_internal_r+0x15b8>
  8041c8:	d9014c17 	ldw	r4,1328(sp)
  8041cc:	2080100c 	andi	r2,r4,64
  8041d0:	1002e726 	beq	r2,zero,804d70 <___vfprintf_internal_r+0x15b8>
  8041d4:	3880000f 	ldh	r2,0(r7)
  8041d8:	39c00104 	addi	r7,r7,4
  8041dc:	d9c14015 	stw	r7,1280(sp)
  8041e0:	1023d7fa 	srai	r17,r2,31
  8041e4:	1021883a 	mov	r16,r2
  8041e8:	88037216 	blt	r17,zero,804fb4 <___vfprintf_internal_r+0x17fc>
  8041ec:	01000044 	movi	r4,1
  8041f0:	98000416 	blt	r19,zero,804204 <___vfprintf_internal_r+0xa4c>
  8041f4:	d8c14c17 	ldw	r3,1328(sp)
  8041f8:	00bfdfc4 	movi	r2,-129
  8041fc:	1886703a 	and	r3,r3,r2
  804200:	d8c14c15 	stw	r3,1328(sp)
  804204:	8444b03a 	or	r2,r16,r17
  804208:	1002261e 	bne	r2,zero,804aa4 <___vfprintf_internal_r+0x12ec>
  80420c:	9802251e 	bne	r19,zero,804aa4 <___vfprintf_internal_r+0x12ec>
  804210:	20803fcc 	andi	r2,r4,255
  804214:	10029b26 	beq	r2,zero,804c84 <___vfprintf_internal_r+0x14cc>
  804218:	d8c01904 	addi	r3,sp,100
  80421c:	dd000f04 	addi	r20,sp,60
  804220:	d8c14115 	stw	r3,1284(sp)
  804224:	d8c14117 	ldw	r3,1284(sp)
  804228:	dcc14515 	stw	r19,1300(sp)
  80422c:	a0c5c83a 	sub	r2,r20,r3
  804230:	11c00a04 	addi	r7,r2,40
  804234:	99c0010e 	bge	r19,r7,80423c <___vfprintf_internal_r+0xa84>
  804238:	d9c14515 	stw	r7,1300(sp)
  80423c:	dcc14615 	stw	r19,1304(sp)
  804240:	d8800407 	ldb	r2,16(sp)
  804244:	103e4c26 	beq	r2,zero,803b78 <___vfprintf_internal_r+0x3c0>
  804248:	d8814517 	ldw	r2,1300(sp)
  80424c:	10800044 	addi	r2,r2,1
  804250:	d8814515 	stw	r2,1300(sp)
  804254:	003e4806 	br	803b78 <___vfprintf_internal_r+0x3c0>
  804258:	d9814c17 	ldw	r6,1328(sp)
  80425c:	31800414 	ori	r6,r6,16
  804260:	d9814c15 	stw	r6,1328(sp)
  804264:	d8c14c17 	ldw	r3,1328(sp)
  804268:	1880080c 	andi	r2,r3,32
  80426c:	1001271e 	bne	r2,zero,80470c <___vfprintf_internal_r+0xf54>
  804270:	d9414c17 	ldw	r5,1328(sp)
  804274:	2880040c 	andi	r2,r5,16
  804278:	1002b61e 	bne	r2,zero,804d54 <___vfprintf_internal_r+0x159c>
  80427c:	d9814c17 	ldw	r6,1328(sp)
  804280:	3080100c 	andi	r2,r6,64
  804284:	1002b326 	beq	r2,zero,804d54 <___vfprintf_internal_r+0x159c>
  804288:	3c00000b 	ldhu	r16,0(r7)
  80428c:	0009883a 	mov	r4,zero
  804290:	39c00104 	addi	r7,r7,4
  804294:	0023883a 	mov	r17,zero
  804298:	d9c14015 	stw	r7,1280(sp)
  80429c:	d8000405 	stb	zero,16(sp)
  8042a0:	003fd306 	br	8041f0 <___vfprintf_internal_r+0xa38>
  8042a4:	d9014c17 	ldw	r4,1328(sp)
  8042a8:	21000414 	ori	r4,r4,16
  8042ac:	d9014c15 	stw	r4,1328(sp)
  8042b0:	d9414c17 	ldw	r5,1328(sp)
  8042b4:	2880080c 	andi	r2,r5,32
  8042b8:	1001081e 	bne	r2,zero,8046dc <___vfprintf_internal_r+0xf24>
  8042bc:	d8c14c17 	ldw	r3,1328(sp)
  8042c0:	1880040c 	andi	r2,r3,16
  8042c4:	1002b01e 	bne	r2,zero,804d88 <___vfprintf_internal_r+0x15d0>
  8042c8:	d9014c17 	ldw	r4,1328(sp)
  8042cc:	2080100c 	andi	r2,r4,64
  8042d0:	1002ad26 	beq	r2,zero,804d88 <___vfprintf_internal_r+0x15d0>
  8042d4:	3c00000b 	ldhu	r16,0(r7)
  8042d8:	01000044 	movi	r4,1
  8042dc:	39c00104 	addi	r7,r7,4
  8042e0:	0023883a 	mov	r17,zero
  8042e4:	d9c14015 	stw	r7,1280(sp)
  8042e8:	d8000405 	stb	zero,16(sp)
  8042ec:	003fc006 	br	8041f0 <___vfprintf_internal_r+0xa38>
  8042f0:	d9014f17 	ldw	r4,1340(sp)
  8042f4:	b00b883a 	mov	r5,r22
  8042f8:	d9800c04 	addi	r6,sp,48
  8042fc:	08037600 	call	803760 <__sprint_r>
  804300:	103ee51e 	bne	r2,zero,803e98 <___vfprintf_internal_r+0x6e0>
  804304:	dc800e17 	ldw	r18,56(sp)
  804308:	d8c01904 	addi	r3,sp,100
  80430c:	d9814c17 	ldw	r6,1328(sp)
  804310:	3080004c 	andi	r2,r6,1
  804314:	1005003a 	cmpeq	r2,r2,zero
  804318:	103ea51e 	bne	r2,zero,803db0 <___vfprintf_internal_r+0x5f8>
  80431c:	00800044 	movi	r2,1
  804320:	dc400d17 	ldw	r17,52(sp)
  804324:	18800115 	stw	r2,4(r3)
  804328:	d8814917 	ldw	r2,1316(sp)
  80432c:	94800044 	addi	r18,r18,1
  804330:	8c400044 	addi	r17,r17,1
  804334:	18800015 	stw	r2,0(r3)
  804338:	008001c4 	movi	r2,7
  80433c:	dc800e15 	stw	r18,56(sp)
  804340:	dc400d15 	stw	r17,52(sp)
  804344:	14421e0e 	bge	r2,r17,804bc0 <___vfprintf_internal_r+0x1408>
  804348:	d9014f17 	ldw	r4,1340(sp)
  80434c:	b00b883a 	mov	r5,r22
  804350:	d9800c04 	addi	r6,sp,48
  804354:	08037600 	call	803760 <__sprint_r>
  804358:	103ecf1e 	bne	r2,zero,803e98 <___vfprintf_internal_r+0x6e0>
  80435c:	dc800e17 	ldw	r18,56(sp)
  804360:	d8c01904 	addi	r3,sp,100
  804364:	003e9206 	br	803db0 <___vfprintf_internal_r+0x5f8>
  804368:	d9014f17 	ldw	r4,1340(sp)
  80436c:	b00b883a 	mov	r5,r22
  804370:	d9800c04 	addi	r6,sp,48
  804374:	08037600 	call	803760 <__sprint_r>
  804378:	103ec026 	beq	r2,zero,803e7c <___vfprintf_internal_r+0x6c4>
  80437c:	003ec606 	br	803e98 <___vfprintf_internal_r+0x6e0>
  804380:	d9014f17 	ldw	r4,1340(sp)
  804384:	b00b883a 	mov	r5,r22
  804388:	d9800c04 	addi	r6,sp,48
  80438c:	d9c15115 	stw	r7,1348(sp)
  804390:	08037600 	call	803760 <__sprint_r>
  804394:	d9c15117 	ldw	r7,1348(sp)
  804398:	103ebf1e 	bne	r2,zero,803e98 <___vfprintf_internal_r+0x6e0>
  80439c:	dc800e17 	ldw	r18,56(sp)
  8043a0:	dc400d17 	ldw	r17,52(sp)
  8043a4:	dd401904 	addi	r21,sp,100
  8043a8:	003e7406 	br	803d7c <___vfprintf_internal_r+0x5c4>
  8043ac:	d9014f17 	ldw	r4,1340(sp)
  8043b0:	b00b883a 	mov	r5,r22
  8043b4:	d9800c04 	addi	r6,sp,48
  8043b8:	d9c15115 	stw	r7,1348(sp)
  8043bc:	08037600 	call	803760 <__sprint_r>
  8043c0:	d9c15117 	ldw	r7,1348(sp)
  8043c4:	103eb41e 	bne	r2,zero,803e98 <___vfprintf_internal_r+0x6e0>
  8043c8:	dd401904 	addi	r21,sp,100
  8043cc:	003d6d06 	br	803984 <___vfprintf_internal_r+0x1cc>
  8043d0:	d9014f17 	ldw	r4,1340(sp)
  8043d4:	b00b883a 	mov	r5,r22
  8043d8:	d9800c04 	addi	r6,sp,48
  8043dc:	d9c15115 	stw	r7,1348(sp)
  8043e0:	08037600 	call	803760 <__sprint_r>
  8043e4:	d9c15117 	ldw	r7,1348(sp)
  8043e8:	103eab1e 	bne	r2,zero,803e98 <___vfprintf_internal_r+0x6e0>
  8043ec:	dc800e17 	ldw	r18,56(sp)
  8043f0:	dc400d17 	ldw	r17,52(sp)
  8043f4:	dd401904 	addi	r21,sp,100
  8043f8:	003e3406 	br	803ccc <___vfprintf_internal_r+0x514>
  8043fc:	d9014f17 	ldw	r4,1340(sp)
  804400:	b00b883a 	mov	r5,r22
  804404:	d9800c04 	addi	r6,sp,48
  804408:	d9c15115 	stw	r7,1348(sp)
  80440c:	08037600 	call	803760 <__sprint_r>
  804410:	d9c15117 	ldw	r7,1348(sp)
  804414:	103ea01e 	bne	r2,zero,803e98 <___vfprintf_internal_r+0x6e0>
  804418:	dc800e17 	ldw	r18,56(sp)
  80441c:	dc400d17 	ldw	r17,52(sp)
  804420:	dd401904 	addi	r21,sp,100
  804424:	003e1c06 	br	803c98 <___vfprintf_internal_r+0x4e0>
  804428:	d9014f17 	ldw	r4,1340(sp)
  80442c:	b00b883a 	mov	r5,r22
  804430:	d9800c04 	addi	r6,sp,48
  804434:	d9c15115 	stw	r7,1348(sp)
  804438:	08037600 	call	803760 <__sprint_r>
  80443c:	d9c15117 	ldw	r7,1348(sp)
  804440:	103e951e 	bne	r2,zero,803e98 <___vfprintf_internal_r+0x6e0>
  804444:	dc800e17 	ldw	r18,56(sp)
  804448:	dc400d17 	ldw	r17,52(sp)
  80444c:	dd401904 	addi	r21,sp,100
  804450:	003e0406 	br	803c64 <___vfprintf_internal_r+0x4ac>
  804454:	d9000517 	ldw	r4,20(sp)
  804458:	0102520e 	bge	zero,r4,804da4 <___vfprintf_internal_r+0x15ec>
  80445c:	d9814717 	ldw	r6,1308(sp)
  804460:	21807a16 	blt	r4,r6,80464c <___vfprintf_internal_r+0xe94>
  804464:	d8814117 	ldw	r2,1284(sp)
  804468:	91a5883a 	add	r18,r18,r6
  80446c:	8c400044 	addi	r17,r17,1
  804470:	a8800015 	stw	r2,0(r21)
  804474:	008001c4 	movi	r2,7
  804478:	a9800115 	stw	r6,4(r21)
  80447c:	dc800e15 	stw	r18,56(sp)
  804480:	dc400d15 	stw	r17,52(sp)
  804484:	1442f616 	blt	r2,r17,805060 <___vfprintf_internal_r+0x18a8>
  804488:	a8c00204 	addi	r3,r21,8
  80448c:	d9414717 	ldw	r5,1308(sp)
  804490:	2161c83a 	sub	r16,r4,r5
  804494:	043f9d0e 	bge	zero,r16,80430c <___vfprintf_internal_r+0xb54>
  804498:	00800404 	movi	r2,16
  80449c:	1402130e 	bge	r2,r16,804cec <___vfprintf_internal_r+0x1534>
  8044a0:	dc400d17 	ldw	r17,52(sp)
  8044a4:	1027883a 	mov	r19,r2
  8044a8:	07002074 	movhi	fp,129
  8044ac:	e7002a84 	addi	fp,fp,170
  8044b0:	050001c4 	movi	r20,7
  8044b4:	00000306 	br	8044c4 <___vfprintf_internal_r+0xd0c>
  8044b8:	18c00204 	addi	r3,r3,8
  8044bc:	843ffc04 	addi	r16,r16,-16
  8044c0:	9c020d0e 	bge	r19,r16,804cf8 <___vfprintf_internal_r+0x1540>
  8044c4:	94800404 	addi	r18,r18,16
  8044c8:	8c400044 	addi	r17,r17,1
  8044cc:	1f000015 	stw	fp,0(r3)
  8044d0:	1cc00115 	stw	r19,4(r3)
  8044d4:	dc800e15 	stw	r18,56(sp)
  8044d8:	dc400d15 	stw	r17,52(sp)
  8044dc:	a47ff60e 	bge	r20,r17,8044b8 <___vfprintf_internal_r+0xd00>
  8044e0:	d9014f17 	ldw	r4,1340(sp)
  8044e4:	b00b883a 	mov	r5,r22
  8044e8:	d9800c04 	addi	r6,sp,48
  8044ec:	08037600 	call	803760 <__sprint_r>
  8044f0:	103e691e 	bne	r2,zero,803e98 <___vfprintf_internal_r+0x6e0>
  8044f4:	dc800e17 	ldw	r18,56(sp)
  8044f8:	dc400d17 	ldw	r17,52(sp)
  8044fc:	d8c01904 	addi	r3,sp,100
  804500:	003fee06 	br	8044bc <___vfprintf_internal_r+0xd04>
  804504:	d8814717 	ldw	r2,1308(sp)
  804508:	143fffc4 	addi	r16,r2,-1
  80450c:	043e970e 	bge	zero,r16,803f6c <___vfprintf_internal_r+0x7b4>
  804510:	00800404 	movi	r2,16
  804514:	1400180e 	bge	r2,r16,804578 <___vfprintf_internal_r+0xdc0>
  804518:	1029883a 	mov	r20,r2
  80451c:	07002074 	movhi	fp,129
  804520:	e7002a84 	addi	fp,fp,170
  804524:	054001c4 	movi	r21,7
  804528:	00000306 	br	804538 <___vfprintf_internal_r+0xd80>
  80452c:	9cc00204 	addi	r19,r19,8
  804530:	843ffc04 	addi	r16,r16,-16
  804534:	a400120e 	bge	r20,r16,804580 <___vfprintf_internal_r+0xdc8>
  804538:	94800404 	addi	r18,r18,16
  80453c:	8c400044 	addi	r17,r17,1
  804540:	9f000015 	stw	fp,0(r19)
  804544:	9d000115 	stw	r20,4(r19)
  804548:	dc800e15 	stw	r18,56(sp)
  80454c:	dc400d15 	stw	r17,52(sp)
  804550:	ac7ff60e 	bge	r21,r17,80452c <___vfprintf_internal_r+0xd74>
  804554:	d9014f17 	ldw	r4,1340(sp)
  804558:	b00b883a 	mov	r5,r22
  80455c:	d9800c04 	addi	r6,sp,48
  804560:	08037600 	call	803760 <__sprint_r>
  804564:	103e4c1e 	bne	r2,zero,803e98 <___vfprintf_internal_r+0x6e0>
  804568:	dc800e17 	ldw	r18,56(sp)
  80456c:	dc400d17 	ldw	r17,52(sp)
  804570:	dcc01904 	addi	r19,sp,100
  804574:	003fee06 	br	804530 <___vfprintf_internal_r+0xd78>
  804578:	07002074 	movhi	fp,129
  80457c:	e7002a84 	addi	fp,fp,170
  804580:	9425883a 	add	r18,r18,r16
  804584:	8c400044 	addi	r17,r17,1
  804588:	008001c4 	movi	r2,7
  80458c:	9f000015 	stw	fp,0(r19)
  804590:	9c000115 	stw	r16,4(r19)
  804594:	dc800e15 	stw	r18,56(sp)
  804598:	dc400d15 	stw	r17,52(sp)
  80459c:	147e720e 	bge	r2,r17,803f68 <___vfprintf_internal_r+0x7b0>
  8045a0:	d9014f17 	ldw	r4,1340(sp)
  8045a4:	b00b883a 	mov	r5,r22
  8045a8:	d9800c04 	addi	r6,sp,48
  8045ac:	08037600 	call	803760 <__sprint_r>
  8045b0:	103e391e 	bne	r2,zero,803e98 <___vfprintf_internal_r+0x6e0>
  8045b4:	dc800e17 	ldw	r18,56(sp)
  8045b8:	dc400d17 	ldw	r17,52(sp)
  8045bc:	dcc01904 	addi	r19,sp,100
  8045c0:	003e6a06 	br	803f6c <___vfprintf_internal_r+0x7b4>
  8045c4:	d9014f17 	ldw	r4,1340(sp)
  8045c8:	b00b883a 	mov	r5,r22
  8045cc:	d9800c04 	addi	r6,sp,48
  8045d0:	d9c15115 	stw	r7,1348(sp)
  8045d4:	08037600 	call	803760 <__sprint_r>
  8045d8:	d9c15117 	ldw	r7,1348(sp)
  8045dc:	103e2e1e 	bne	r2,zero,803e98 <___vfprintf_internal_r+0x6e0>
  8045e0:	dc800e17 	ldw	r18,56(sp)
  8045e4:	dc400d17 	ldw	r17,52(sp)
  8045e8:	dd401904 	addi	r21,sp,100
  8045ec:	003dba06 	br	803cd8 <___vfprintf_internal_r+0x520>
  8045f0:	d9014f17 	ldw	r4,1340(sp)
  8045f4:	b00b883a 	mov	r5,r22
  8045f8:	d9800c04 	addi	r6,sp,48
  8045fc:	08037600 	call	803760 <__sprint_r>
  804600:	103e251e 	bne	r2,zero,803e98 <___vfprintf_internal_r+0x6e0>
  804604:	dc800e17 	ldw	r18,56(sp)
  804608:	dc400d17 	ldw	r17,52(sp)
  80460c:	dcc01904 	addi	r19,sp,100
  804610:	003e4206 	br	803f1c <___vfprintf_internal_r+0x764>
  804614:	d9014f17 	ldw	r4,1340(sp)
  804618:	b00b883a 	mov	r5,r22
  80461c:	d9800c04 	addi	r6,sp,48
  804620:	08037600 	call	803760 <__sprint_r>
  804624:	103e1c1e 	bne	r2,zero,803e98 <___vfprintf_internal_r+0x6e0>
  804628:	dc800e17 	ldw	r18,56(sp)
  80462c:	dc400d17 	ldw	r17,52(sp)
  804630:	d8c01904 	addi	r3,sp,100
  804634:	003e2e06 	br	803ef0 <___vfprintf_internal_r+0x738>
  804638:	d9414c17 	ldw	r5,1328(sp)
  80463c:	2880004c 	andi	r2,r5,1
  804640:	1005003a 	cmpeq	r2,r2,zero
  804644:	103dda1e 	bne	r2,zero,803db0 <___vfprintf_internal_r+0x5f8>
  804648:	003e9f06 	br	8040c8 <___vfprintf_internal_r+0x910>
  80464c:	d8c14117 	ldw	r3,1284(sp)
  804650:	9125883a 	add	r18,r18,r4
  804654:	8c400044 	addi	r17,r17,1
  804658:	008001c4 	movi	r2,7
  80465c:	a8c00015 	stw	r3,0(r21)
  804660:	a9000115 	stw	r4,4(r21)
  804664:	dc800e15 	stw	r18,56(sp)
  804668:	dc400d15 	stw	r17,52(sp)
  80466c:	14426616 	blt	r2,r17,805008 <___vfprintf_internal_r+0x1850>
  804670:	a8c00204 	addi	r3,r21,8
  804674:	d9414917 	ldw	r5,1316(sp)
  804678:	00800044 	movi	r2,1
  80467c:	94800044 	addi	r18,r18,1
  804680:	8c400044 	addi	r17,r17,1
  804684:	18800115 	stw	r2,4(r3)
  804688:	008001c4 	movi	r2,7
  80468c:	19400015 	stw	r5,0(r3)
  804690:	dc800e15 	stw	r18,56(sp)
  804694:	dc400d15 	stw	r17,52(sp)
  804698:	2021883a 	mov	r16,r4
  80469c:	14425016 	blt	r2,r17,804fe0 <___vfprintf_internal_r+0x1828>
  8046a0:	19400204 	addi	r5,r3,8
  8046a4:	d9814717 	ldw	r6,1308(sp)
  8046a8:	8c400044 	addi	r17,r17,1
  8046ac:	dc400d15 	stw	r17,52(sp)
  8046b0:	3107c83a 	sub	r3,r6,r4
  8046b4:	d9014117 	ldw	r4,1284(sp)
  8046b8:	90e5883a 	add	r18,r18,r3
  8046bc:	28c00115 	stw	r3,4(r5)
  8046c0:	8105883a 	add	r2,r16,r4
  8046c4:	28800015 	stw	r2,0(r5)
  8046c8:	008001c4 	movi	r2,7
  8046cc:	dc800e15 	stw	r18,56(sp)
  8046d0:	147f1d16 	blt	r2,r17,804348 <___vfprintf_internal_r+0xb90>
  8046d4:	28c00204 	addi	r3,r5,8
  8046d8:	003db506 	br	803db0 <___vfprintf_internal_r+0x5f8>
  8046dc:	3c000017 	ldw	r16,0(r7)
  8046e0:	3c400117 	ldw	r17,4(r7)
  8046e4:	39800204 	addi	r6,r7,8
  8046e8:	01000044 	movi	r4,1
  8046ec:	d9814015 	stw	r6,1280(sp)
  8046f0:	d8000405 	stb	zero,16(sp)
  8046f4:	003ebe06 	br	8041f0 <___vfprintf_internal_r+0xa38>
  8046f8:	3c000017 	ldw	r16,0(r7)
  8046fc:	3c400117 	ldw	r17,4(r7)
  804700:	38800204 	addi	r2,r7,8
  804704:	d8814015 	stw	r2,1280(sp)
  804708:	003eb706 	br	8041e8 <___vfprintf_internal_r+0xa30>
  80470c:	3c000017 	ldw	r16,0(r7)
  804710:	3c400117 	ldw	r17,4(r7)
  804714:	39000204 	addi	r4,r7,8
  804718:	d9014015 	stw	r4,1280(sp)
  80471c:	0009883a 	mov	r4,zero
  804720:	d8000405 	stb	zero,16(sp)
  804724:	003eb206 	br	8041f0 <___vfprintf_internal_r+0xa38>
  804728:	38c00017 	ldw	r3,0(r7)
  80472c:	39c00104 	addi	r7,r7,4
  804730:	d8c14a15 	stw	r3,1320(sp)
  804734:	1800d10e 	bge	r3,zero,804a7c <___vfprintf_internal_r+0x12c4>
  804738:	00c7c83a 	sub	r3,zero,r3
  80473c:	d8c14a15 	stw	r3,1320(sp)
  804740:	d9014c17 	ldw	r4,1328(sp)
  804744:	b8c00007 	ldb	r3,0(r23)
  804748:	21000114 	ori	r4,r4,4
  80474c:	d9014c15 	stw	r4,1328(sp)
  804750:	003c9806 	br	8039b4 <___vfprintf_internal_r+0x1fc>
  804754:	d9814c17 	ldw	r6,1328(sp)
  804758:	3080080c 	andi	r2,r6,32
  80475c:	1001f026 	beq	r2,zero,804f20 <___vfprintf_internal_r+0x1768>
  804760:	d9014b17 	ldw	r4,1324(sp)
  804764:	38800017 	ldw	r2,0(r7)
  804768:	39c00104 	addi	r7,r7,4
  80476c:	d9c14015 	stw	r7,1280(sp)
  804770:	2007d7fa 	srai	r3,r4,31
  804774:	d9c14017 	ldw	r7,1280(sp)
  804778:	11000015 	stw	r4,0(r2)
  80477c:	10c00115 	stw	r3,4(r2)
  804780:	003c6906 	br	803928 <___vfprintf_internal_r+0x170>
  804784:	b8c00007 	ldb	r3,0(r23)
  804788:	00801b04 	movi	r2,108
  80478c:	18824f26 	beq	r3,r2,8050cc <___vfprintf_internal_r+0x1914>
  804790:	d9414c17 	ldw	r5,1328(sp)
  804794:	29400414 	ori	r5,r5,16
  804798:	d9414c15 	stw	r5,1328(sp)
  80479c:	003c8506 	br	8039b4 <___vfprintf_internal_r+0x1fc>
  8047a0:	d9814c17 	ldw	r6,1328(sp)
  8047a4:	b8c00007 	ldb	r3,0(r23)
  8047a8:	31800814 	ori	r6,r6,32
  8047ac:	d9814c15 	stw	r6,1328(sp)
  8047b0:	003c8006 	br	8039b4 <___vfprintf_internal_r+0x1fc>
  8047b4:	d8814c17 	ldw	r2,1328(sp)
  8047b8:	3c000017 	ldw	r16,0(r7)
  8047bc:	00c01e04 	movi	r3,120
  8047c0:	10800094 	ori	r2,r2,2
  8047c4:	d8814c15 	stw	r2,1328(sp)
  8047c8:	39c00104 	addi	r7,r7,4
  8047cc:	01402074 	movhi	r5,129
  8047d0:	29401304 	addi	r5,r5,76
  8047d4:	00800c04 	movi	r2,48
  8047d8:	0023883a 	mov	r17,zero
  8047dc:	01000084 	movi	r4,2
  8047e0:	d9c14015 	stw	r7,1280(sp)
  8047e4:	d8c14d15 	stw	r3,1332(sp)
  8047e8:	d9414415 	stw	r5,1296(sp)
  8047ec:	d8800445 	stb	r2,17(sp)
  8047f0:	d8c00485 	stb	r3,18(sp)
  8047f4:	d8000405 	stb	zero,16(sp)
  8047f8:	003e7d06 	br	8041f0 <___vfprintf_internal_r+0xa38>
  8047fc:	d8814c17 	ldw	r2,1328(sp)
  804800:	b8c00007 	ldb	r3,0(r23)
  804804:	10801014 	ori	r2,r2,64
  804808:	d8814c15 	stw	r2,1328(sp)
  80480c:	003c6906 	br	8039b4 <___vfprintf_internal_r+0x1fc>
  804810:	d9414c17 	ldw	r5,1328(sp)
  804814:	2880020c 	andi	r2,r5,8
  804818:	1001df26 	beq	r2,zero,804f98 <___vfprintf_internal_r+0x17e0>
  80481c:	39800017 	ldw	r6,0(r7)
  804820:	38800204 	addi	r2,r7,8
  804824:	d8814015 	stw	r2,1280(sp)
  804828:	d9814215 	stw	r6,1288(sp)
  80482c:	39c00117 	ldw	r7,4(r7)
  804830:	d9c14315 	stw	r7,1292(sp)
  804834:	d9014217 	ldw	r4,1288(sp)
  804838:	d9414317 	ldw	r5,1292(sp)
  80483c:	08093840 	call	809384 <__isinfd>
  804840:	10021726 	beq	r2,zero,8050a0 <___vfprintf_internal_r+0x18e8>
  804844:	d9014217 	ldw	r4,1288(sp)
  804848:	d9414317 	ldw	r5,1292(sp)
  80484c:	000d883a 	mov	r6,zero
  804850:	000f883a 	mov	r7,zero
  804854:	080b35c0 	call	80b35c <__ltdf2>
  804858:	1002ca16 	blt	r2,zero,805384 <___vfprintf_internal_r+0x1bcc>
  80485c:	d9414d17 	ldw	r5,1332(sp)
  804860:	008011c4 	movi	r2,71
  804864:	11420a16 	blt	r2,r5,805090 <___vfprintf_internal_r+0x18d8>
  804868:	01802074 	movhi	r6,129
  80486c:	31801804 	addi	r6,r6,96
  804870:	d9814115 	stw	r6,1284(sp)
  804874:	d9014c17 	ldw	r4,1328(sp)
  804878:	00c000c4 	movi	r3,3
  80487c:	00bfdfc4 	movi	r2,-129
  804880:	2088703a 	and	r4,r4,r2
  804884:	180f883a 	mov	r7,r3
  804888:	d8c14515 	stw	r3,1300(sp)
  80488c:	d9014c15 	stw	r4,1328(sp)
  804890:	d8014615 	stw	zero,1304(sp)
  804894:	003e6a06 	br	804240 <___vfprintf_internal_r+0xa88>
  804898:	38800017 	ldw	r2,0(r7)
  80489c:	00c00044 	movi	r3,1
  8048a0:	39c00104 	addi	r7,r7,4
  8048a4:	d9c14015 	stw	r7,1280(sp)
  8048a8:	d9000f04 	addi	r4,sp,60
  8048ac:	180f883a 	mov	r7,r3
  8048b0:	d8c14515 	stw	r3,1300(sp)
  8048b4:	d9014115 	stw	r4,1284(sp)
  8048b8:	d8800f05 	stb	r2,60(sp)
  8048bc:	d8000405 	stb	zero,16(sp)
  8048c0:	003cac06 	br	803b74 <___vfprintf_internal_r+0x3bc>
  8048c4:	01402074 	movhi	r5,129
  8048c8:	29401e04 	addi	r5,r5,120
  8048cc:	d9414415 	stw	r5,1296(sp)
  8048d0:	d9814c17 	ldw	r6,1328(sp)
  8048d4:	3080080c 	andi	r2,r6,32
  8048d8:	1000f926 	beq	r2,zero,804cc0 <___vfprintf_internal_r+0x1508>
  8048dc:	3c000017 	ldw	r16,0(r7)
  8048e0:	3c400117 	ldw	r17,4(r7)
  8048e4:	38800204 	addi	r2,r7,8
  8048e8:	d8814015 	stw	r2,1280(sp)
  8048ec:	d9414c17 	ldw	r5,1328(sp)
  8048f0:	2880004c 	andi	r2,r5,1
  8048f4:	1005003a 	cmpeq	r2,r2,zero
  8048f8:	1000b31e 	bne	r2,zero,804bc8 <___vfprintf_internal_r+0x1410>
  8048fc:	8444b03a 	or	r2,r16,r17
  804900:	1000b126 	beq	r2,zero,804bc8 <___vfprintf_internal_r+0x1410>
  804904:	d9814d17 	ldw	r6,1332(sp)
  804908:	29400094 	ori	r5,r5,2
  80490c:	00800c04 	movi	r2,48
  804910:	01000084 	movi	r4,2
  804914:	d9414c15 	stw	r5,1328(sp)
  804918:	d8800445 	stb	r2,17(sp)
  80491c:	d9800485 	stb	r6,18(sp)
  804920:	d8000405 	stb	zero,16(sp)
  804924:	003e3206 	br	8041f0 <___vfprintf_internal_r+0xa38>
  804928:	01802074 	movhi	r6,129
  80492c:	31801304 	addi	r6,r6,76
  804930:	d9814415 	stw	r6,1296(sp)
  804934:	003fe606 	br	8048d0 <___vfprintf_internal_r+0x1118>
  804938:	00800ac4 	movi	r2,43
  80493c:	d8800405 	stb	r2,16(sp)
  804940:	b8c00007 	ldb	r3,0(r23)
  804944:	003c1b06 	br	8039b4 <___vfprintf_internal_r+0x1fc>
  804948:	d8814c17 	ldw	r2,1328(sp)
  80494c:	b8c00007 	ldb	r3,0(r23)
  804950:	10800054 	ori	r2,r2,1
  804954:	d8814c15 	stw	r2,1328(sp)
  804958:	003c1606 	br	8039b4 <___vfprintf_internal_r+0x1fc>
  80495c:	d8800407 	ldb	r2,16(sp)
  804960:	1000461e 	bne	r2,zero,804a7c <___vfprintf_internal_r+0x12c4>
  804964:	00800804 	movi	r2,32
  804968:	d8800405 	stb	r2,16(sp)
  80496c:	b8c00007 	ldb	r3,0(r23)
  804970:	003c1006 	br	8039b4 <___vfprintf_internal_r+0x1fc>
  804974:	d9814c17 	ldw	r6,1328(sp)
  804978:	b8c00007 	ldb	r3,0(r23)
  80497c:	31800214 	ori	r6,r6,8
  804980:	d9814c15 	stw	r6,1328(sp)
  804984:	003c0b06 	br	8039b4 <___vfprintf_internal_r+0x1fc>
  804988:	0007883a 	mov	r3,zero
  80498c:	01000244 	movi	r4,9
  804990:	188002a4 	muli	r2,r3,10
  804994:	b8c00007 	ldb	r3,0(r23)
  804998:	d9814d17 	ldw	r6,1332(sp)
  80499c:	bdc00044 	addi	r23,r23,1
  8049a0:	d8c14d15 	stw	r3,1332(sp)
  8049a4:	d9414d17 	ldw	r5,1332(sp)
  8049a8:	3085883a 	add	r2,r6,r2
  8049ac:	10fff404 	addi	r3,r2,-48
  8049b0:	28bff404 	addi	r2,r5,-48
  8049b4:	20bff62e 	bgeu	r4,r2,804990 <___vfprintf_internal_r+0x11d8>
  8049b8:	d8c14a15 	stw	r3,1320(sp)
  8049bc:	003bff06 	br	8039bc <___vfprintf_internal_r+0x204>
  8049c0:	d9414c17 	ldw	r5,1328(sp)
  8049c4:	b8c00007 	ldb	r3,0(r23)
  8049c8:	29402014 	ori	r5,r5,128
  8049cc:	d9414c15 	stw	r5,1328(sp)
  8049d0:	003bf806 	br	8039b4 <___vfprintf_internal_r+0x1fc>
  8049d4:	b8c00007 	ldb	r3,0(r23)
  8049d8:	00800a84 	movi	r2,42
  8049dc:	bdc00044 	addi	r23,r23,1
  8049e0:	18831526 	beq	r3,r2,805638 <___vfprintf_internal_r+0x1e80>
  8049e4:	d8c14d15 	stw	r3,1332(sp)
  8049e8:	18bff404 	addi	r2,r3,-48
  8049ec:	00c00244 	movi	r3,9
  8049f0:	18827836 	bltu	r3,r2,8053d4 <___vfprintf_internal_r+0x1c1c>
  8049f4:	000d883a 	mov	r6,zero
  8049f8:	308002a4 	muli	r2,r6,10
  8049fc:	b9800007 	ldb	r6,0(r23)
  804a00:	d9414d17 	ldw	r5,1332(sp)
  804a04:	bdc00044 	addi	r23,r23,1
  804a08:	d9814d15 	stw	r6,1332(sp)
  804a0c:	d9014d17 	ldw	r4,1332(sp)
  804a10:	1145883a 	add	r2,r2,r5
  804a14:	11bff404 	addi	r6,r2,-48
  804a18:	20bff404 	addi	r2,r4,-48
  804a1c:	18bff62e 	bgeu	r3,r2,8049f8 <___vfprintf_internal_r+0x1240>
  804a20:	3027883a 	mov	r19,r6
  804a24:	303be50e 	bge	r6,zero,8039bc <___vfprintf_internal_r+0x204>
  804a28:	04ffffc4 	movi	r19,-1
  804a2c:	003be306 	br	8039bc <___vfprintf_internal_r+0x204>
  804a30:	d8000405 	stb	zero,16(sp)
  804a34:	39800017 	ldw	r6,0(r7)
  804a38:	39c00104 	addi	r7,r7,4
  804a3c:	d9c14015 	stw	r7,1280(sp)
  804a40:	d9814115 	stw	r6,1284(sp)
  804a44:	3001c926 	beq	r6,zero,80516c <___vfprintf_internal_r+0x19b4>
  804a48:	98000e16 	blt	r19,zero,804a84 <___vfprintf_internal_r+0x12cc>
  804a4c:	d9014117 	ldw	r4,1284(sp)
  804a50:	000b883a 	mov	r5,zero
  804a54:	980d883a 	mov	r6,r19
  804a58:	08081340 	call	808134 <memchr>
  804a5c:	10025926 	beq	r2,zero,8053c4 <___vfprintf_internal_r+0x1c0c>
  804a60:	d8c14117 	ldw	r3,1284(sp)
  804a64:	10cfc83a 	sub	r7,r2,r3
  804a68:	99c19e16 	blt	r19,r7,8050e4 <___vfprintf_internal_r+0x192c>
  804a6c:	d9c14515 	stw	r7,1300(sp)
  804a70:	38000916 	blt	r7,zero,804a98 <___vfprintf_internal_r+0x12e0>
  804a74:	d8014615 	stw	zero,1304(sp)
  804a78:	003df106 	br	804240 <___vfprintf_internal_r+0xa88>
  804a7c:	b8c00007 	ldb	r3,0(r23)
  804a80:	003bcc06 	br	8039b4 <___vfprintf_internal_r+0x1fc>
  804a84:	d9014117 	ldw	r4,1284(sp)
  804a88:	08036300 	call	803630 <strlen>
  804a8c:	d8814515 	stw	r2,1300(sp)
  804a90:	100f883a 	mov	r7,r2
  804a94:	103ff70e 	bge	r2,zero,804a74 <___vfprintf_internal_r+0x12bc>
  804a98:	d8014515 	stw	zero,1300(sp)
  804a9c:	d8014615 	stw	zero,1304(sp)
  804aa0:	003de706 	br	804240 <___vfprintf_internal_r+0xa88>
  804aa4:	20c03fcc 	andi	r3,r4,255
  804aa8:	00800044 	movi	r2,1
  804aac:	18802d26 	beq	r3,r2,804b64 <___vfprintf_internal_r+0x13ac>
  804ab0:	18800e36 	bltu	r3,r2,804aec <___vfprintf_internal_r+0x1334>
  804ab4:	00800084 	movi	r2,2
  804ab8:	1880fa26 	beq	r3,r2,804ea4 <___vfprintf_internal_r+0x16ec>
  804abc:	01002074 	movhi	r4,129
  804ac0:	21002304 	addi	r4,r4,140
  804ac4:	08036300 	call	803630 <strlen>
  804ac8:	100f883a 	mov	r7,r2
  804acc:	dcc14515 	stw	r19,1300(sp)
  804ad0:	9880010e 	bge	r19,r2,804ad8 <___vfprintf_internal_r+0x1320>
  804ad4:	d8814515 	stw	r2,1300(sp)
  804ad8:	00802074 	movhi	r2,129
  804adc:	10802304 	addi	r2,r2,140
  804ae0:	dcc14615 	stw	r19,1304(sp)
  804ae4:	d8814115 	stw	r2,1284(sp)
  804ae8:	003dd506 	br	804240 <___vfprintf_internal_r+0xa88>
  804aec:	d9401904 	addi	r5,sp,100
  804af0:	dd000f04 	addi	r20,sp,60
  804af4:	d9414115 	stw	r5,1284(sp)
  804af8:	880a977a 	slli	r5,r17,29
  804afc:	d9814117 	ldw	r6,1284(sp)
  804b00:	8004d0fa 	srli	r2,r16,3
  804b04:	8806d0fa 	srli	r3,r17,3
  804b08:	810001cc 	andi	r4,r16,7
  804b0c:	2884b03a 	or	r2,r5,r2
  804b10:	31bfffc4 	addi	r6,r6,-1
  804b14:	21000c04 	addi	r4,r4,48
  804b18:	d9814115 	stw	r6,1284(sp)
  804b1c:	10cab03a 	or	r5,r2,r3
  804b20:	31000005 	stb	r4,0(r6)
  804b24:	1021883a 	mov	r16,r2
  804b28:	1823883a 	mov	r17,r3
  804b2c:	283ff21e 	bne	r5,zero,804af8 <___vfprintf_internal_r+0x1340>
  804b30:	d8c14c17 	ldw	r3,1328(sp)
  804b34:	1880004c 	andi	r2,r3,1
  804b38:	1005003a 	cmpeq	r2,r2,zero
  804b3c:	103db91e 	bne	r2,zero,804224 <___vfprintf_internal_r+0xa6c>
  804b40:	20803fcc 	andi	r2,r4,255
  804b44:	1080201c 	xori	r2,r2,128
  804b48:	10bfe004 	addi	r2,r2,-128
  804b4c:	00c00c04 	movi	r3,48
  804b50:	10fdb426 	beq	r2,r3,804224 <___vfprintf_internal_r+0xa6c>
  804b54:	31bfffc4 	addi	r6,r6,-1
  804b58:	d9814115 	stw	r6,1284(sp)
  804b5c:	30c00005 	stb	r3,0(r6)
  804b60:	003db006 	br	804224 <___vfprintf_internal_r+0xa6c>
  804b64:	88800068 	cmpgeui	r2,r17,1
  804b68:	10002c1e 	bne	r2,zero,804c1c <___vfprintf_internal_r+0x1464>
  804b6c:	8800021e 	bne	r17,zero,804b78 <___vfprintf_internal_r+0x13c0>
  804b70:	00800244 	movi	r2,9
  804b74:	14002936 	bltu	r2,r16,804c1c <___vfprintf_internal_r+0x1464>
  804b78:	d90018c4 	addi	r4,sp,99
  804b7c:	dd000f04 	addi	r20,sp,60
  804b80:	d9014115 	stw	r4,1284(sp)
  804b84:	d9014117 	ldw	r4,1284(sp)
  804b88:	80800c04 	addi	r2,r16,48
  804b8c:	20800005 	stb	r2,0(r4)
  804b90:	003da406 	br	804224 <___vfprintf_internal_r+0xa6c>
  804b94:	dc400d17 	ldw	r17,52(sp)
  804b98:	07002074 	movhi	fp,129
  804b9c:	e7002a84 	addi	fp,fp,170
  804ba0:	9425883a 	add	r18,r18,r16
  804ba4:	8c400044 	addi	r17,r17,1
  804ba8:	008001c4 	movi	r2,7
  804bac:	1f000015 	stw	fp,0(r3)
  804bb0:	1c000115 	stw	r16,4(r3)
  804bb4:	dc800e15 	stw	r18,56(sp)
  804bb8:	dc400d15 	stw	r17,52(sp)
  804bbc:	147de216 	blt	r2,r17,804348 <___vfprintf_internal_r+0xb90>
  804bc0:	18c00204 	addi	r3,r3,8
  804bc4:	003c7a06 	br	803db0 <___vfprintf_internal_r+0x5f8>
  804bc8:	01000084 	movi	r4,2
  804bcc:	d8000405 	stb	zero,16(sp)
  804bd0:	003d8706 	br	8041f0 <___vfprintf_internal_r+0xa38>
  804bd4:	d9814c17 	ldw	r6,1328(sp)
  804bd8:	30c4703a 	and	r2,r6,r3
  804bdc:	1005003a 	cmpeq	r2,r2,zero
  804be0:	103cb926 	beq	r2,zero,803ec8 <___vfprintf_internal_r+0x710>
  804be4:	d9014117 	ldw	r4,1284(sp)
  804be8:	94800044 	addi	r18,r18,1
  804bec:	8c400044 	addi	r17,r17,1
  804bf0:	008001c4 	movi	r2,7
  804bf4:	a9000015 	stw	r4,0(r21)
  804bf8:	a8c00115 	stw	r3,4(r21)
  804bfc:	dc800e15 	stw	r18,56(sp)
  804c00:	dc400d15 	stw	r17,52(sp)
  804c04:	147e6616 	blt	r2,r17,8045a0 <___vfprintf_internal_r+0xde8>
  804c08:	acc00204 	addi	r19,r21,8
  804c0c:	003cd706 	br	803f6c <___vfprintf_internal_r+0x7b4>
  804c10:	07002074 	movhi	fp,129
  804c14:	e7002a84 	addi	fp,fp,170
  804c18:	003c4f06 	br	803d58 <___vfprintf_internal_r+0x5a0>
  804c1c:	dd000f04 	addi	r20,sp,60
  804c20:	dc801904 	addi	r18,sp,100
  804c24:	8009883a 	mov	r4,r16
  804c28:	880b883a 	mov	r5,r17
  804c2c:	01800284 	movi	r6,10
  804c30:	000f883a 	mov	r7,zero
  804c34:	080a06c0 	call	80a06c <__umoddi3>
  804c38:	12000c04 	addi	r8,r2,48
  804c3c:	94bfffc4 	addi	r18,r18,-1
  804c40:	8009883a 	mov	r4,r16
  804c44:	880b883a 	mov	r5,r17
  804c48:	01800284 	movi	r6,10
  804c4c:	000f883a 	mov	r7,zero
  804c50:	92000005 	stb	r8,0(r18)
  804c54:	0809a900 	call	809a90 <__udivdi3>
  804c58:	1009883a 	mov	r4,r2
  804c5c:	1021883a 	mov	r16,r2
  804c60:	18800068 	cmpgeui	r2,r3,1
  804c64:	1823883a 	mov	r17,r3
  804c68:	103fee1e 	bne	r2,zero,804c24 <___vfprintf_internal_r+0x146c>
  804c6c:	1800021e 	bne	r3,zero,804c78 <___vfprintf_internal_r+0x14c0>
  804c70:	00800244 	movi	r2,9
  804c74:	113feb36 	bltu	r2,r4,804c24 <___vfprintf_internal_r+0x146c>
  804c78:	94bfffc4 	addi	r18,r18,-1
  804c7c:	dc814115 	stw	r18,1284(sp)
  804c80:	003fc006 	br	804b84 <___vfprintf_internal_r+0x13cc>
  804c84:	d9014c17 	ldw	r4,1328(sp)
  804c88:	2080004c 	andi	r2,r4,1
  804c8c:	10009a1e 	bne	r2,zero,804ef8 <___vfprintf_internal_r+0x1740>
  804c90:	d9401904 	addi	r5,sp,100
  804c94:	dd000f04 	addi	r20,sp,60
  804c98:	d9414115 	stw	r5,1284(sp)
  804c9c:	003d6106 	br	804224 <___vfprintf_internal_r+0xa6c>
  804ca0:	d9014f17 	ldw	r4,1340(sp)
  804ca4:	b00b883a 	mov	r5,r22
  804ca8:	d9800c04 	addi	r6,sp,48
  804cac:	08037600 	call	803760 <__sprint_r>
  804cb0:	103c791e 	bne	r2,zero,803e98 <___vfprintf_internal_r+0x6e0>
  804cb4:	dc800e17 	ldw	r18,56(sp)
  804cb8:	d8c01904 	addi	r3,sp,100
  804cbc:	003cff06 	br	8040bc <___vfprintf_internal_r+0x904>
  804cc0:	d8c14c17 	ldw	r3,1328(sp)
  804cc4:	1880040c 	andi	r2,r3,16
  804cc8:	1000711e 	bne	r2,zero,804e90 <___vfprintf_internal_r+0x16d8>
  804ccc:	d9014c17 	ldw	r4,1328(sp)
  804cd0:	2080100c 	andi	r2,r4,64
  804cd4:	10006e26 	beq	r2,zero,804e90 <___vfprintf_internal_r+0x16d8>
  804cd8:	3c00000b 	ldhu	r16,0(r7)
  804cdc:	0023883a 	mov	r17,zero
  804ce0:	39c00104 	addi	r7,r7,4
  804ce4:	d9c14015 	stw	r7,1280(sp)
  804ce8:	003f0006 	br	8048ec <___vfprintf_internal_r+0x1134>
  804cec:	dc400d17 	ldw	r17,52(sp)
  804cf0:	07002074 	movhi	fp,129
  804cf4:	e7002a84 	addi	fp,fp,170
  804cf8:	9425883a 	add	r18,r18,r16
  804cfc:	8c400044 	addi	r17,r17,1
  804d00:	008001c4 	movi	r2,7
  804d04:	1f000015 	stw	fp,0(r3)
  804d08:	1c000115 	stw	r16,4(r3)
  804d0c:	dc800e15 	stw	r18,56(sp)
  804d10:	dc400d15 	stw	r17,52(sp)
  804d14:	147d7616 	blt	r2,r17,8042f0 <___vfprintf_internal_r+0xb38>
  804d18:	18c00204 	addi	r3,r3,8
  804d1c:	003d7b06 	br	80430c <___vfprintf_internal_r+0xb54>
  804d20:	dc800e17 	ldw	r18,56(sp)
  804d24:	dc400d17 	ldw	r17,52(sp)
  804d28:	07002074 	movhi	fp,129
  804d2c:	e7002e84 	addi	fp,fp,186
  804d30:	003bc006 	br	803c34 <___vfprintf_internal_r+0x47c>
  804d34:	d9014f17 	ldw	r4,1340(sp)
  804d38:	b00b883a 	mov	r5,r22
  804d3c:	d9800c04 	addi	r6,sp,48
  804d40:	08037600 	call	803760 <__sprint_r>
  804d44:	103c541e 	bne	r2,zero,803e98 <___vfprintf_internal_r+0x6e0>
  804d48:	dc800e17 	ldw	r18,56(sp)
  804d4c:	d8c01904 	addi	r3,sp,100
  804d50:	003ce906 	br	8040f8 <___vfprintf_internal_r+0x940>
  804d54:	3c000017 	ldw	r16,0(r7)
  804d58:	0009883a 	mov	r4,zero
  804d5c:	39c00104 	addi	r7,r7,4
  804d60:	0023883a 	mov	r17,zero
  804d64:	d9c14015 	stw	r7,1280(sp)
  804d68:	d8000405 	stb	zero,16(sp)
  804d6c:	003d2006 	br	8041f0 <___vfprintf_internal_r+0xa38>
  804d70:	38800017 	ldw	r2,0(r7)
  804d74:	39c00104 	addi	r7,r7,4
  804d78:	d9c14015 	stw	r7,1280(sp)
  804d7c:	1023d7fa 	srai	r17,r2,31
  804d80:	1021883a 	mov	r16,r2
  804d84:	003d1806 	br	8041e8 <___vfprintf_internal_r+0xa30>
  804d88:	3c000017 	ldw	r16,0(r7)
  804d8c:	01000044 	movi	r4,1
  804d90:	39c00104 	addi	r7,r7,4
  804d94:	0023883a 	mov	r17,zero
  804d98:	d9c14015 	stw	r7,1280(sp)
  804d9c:	d8000405 	stb	zero,16(sp)
  804da0:	003d1306 	br	8041f0 <___vfprintf_internal_r+0xa38>
  804da4:	00802074 	movhi	r2,129
  804da8:	10802a04 	addi	r2,r2,168
  804dac:	94800044 	addi	r18,r18,1
  804db0:	8c400044 	addi	r17,r17,1
  804db4:	a8800015 	stw	r2,0(r21)
  804db8:	00c00044 	movi	r3,1
  804dbc:	008001c4 	movi	r2,7
  804dc0:	a8c00115 	stw	r3,4(r21)
  804dc4:	dc800e15 	stw	r18,56(sp)
  804dc8:	dc400d15 	stw	r17,52(sp)
  804dcc:	1440ca16 	blt	r2,r17,8050f8 <___vfprintf_internal_r+0x1940>
  804dd0:	a8c00204 	addi	r3,r21,8
  804dd4:	2000061e 	bne	r4,zero,804df0 <___vfprintf_internal_r+0x1638>
  804dd8:	d9414717 	ldw	r5,1308(sp)
  804ddc:	2800041e 	bne	r5,zero,804df0 <___vfprintf_internal_r+0x1638>
  804de0:	d9814c17 	ldw	r6,1328(sp)
  804de4:	3080004c 	andi	r2,r6,1
  804de8:	1005003a 	cmpeq	r2,r2,zero
  804dec:	103bf01e 	bne	r2,zero,803db0 <___vfprintf_internal_r+0x5f8>
  804df0:	00800044 	movi	r2,1
  804df4:	dc400d17 	ldw	r17,52(sp)
  804df8:	18800115 	stw	r2,4(r3)
  804dfc:	d8814917 	ldw	r2,1316(sp)
  804e00:	94800044 	addi	r18,r18,1
  804e04:	8c400044 	addi	r17,r17,1
  804e08:	18800015 	stw	r2,0(r3)
  804e0c:	008001c4 	movi	r2,7
  804e10:	dc800e15 	stw	r18,56(sp)
  804e14:	dc400d15 	stw	r17,52(sp)
  804e18:	1440ca16 	blt	r2,r17,805144 <___vfprintf_internal_r+0x198c>
  804e1c:	18c00204 	addi	r3,r3,8
  804e20:	0121c83a 	sub	r16,zero,r4
  804e24:	0400500e 	bge	zero,r16,804f68 <___vfprintf_internal_r+0x17b0>
  804e28:	00800404 	movi	r2,16
  804e2c:	1400800e 	bge	r2,r16,805030 <___vfprintf_internal_r+0x1878>
  804e30:	1027883a 	mov	r19,r2
  804e34:	07002074 	movhi	fp,129
  804e38:	e7002a84 	addi	fp,fp,170
  804e3c:	050001c4 	movi	r20,7
  804e40:	00000306 	br	804e50 <___vfprintf_internal_r+0x1698>
  804e44:	18c00204 	addi	r3,r3,8
  804e48:	843ffc04 	addi	r16,r16,-16
  804e4c:	9c007a0e 	bge	r19,r16,805038 <___vfprintf_internal_r+0x1880>
  804e50:	94800404 	addi	r18,r18,16
  804e54:	8c400044 	addi	r17,r17,1
  804e58:	1f000015 	stw	fp,0(r3)
  804e5c:	1cc00115 	stw	r19,4(r3)
  804e60:	dc800e15 	stw	r18,56(sp)
  804e64:	dc400d15 	stw	r17,52(sp)
  804e68:	a47ff60e 	bge	r20,r17,804e44 <___vfprintf_internal_r+0x168c>
  804e6c:	d9014f17 	ldw	r4,1340(sp)
  804e70:	b00b883a 	mov	r5,r22
  804e74:	d9800c04 	addi	r6,sp,48
  804e78:	08037600 	call	803760 <__sprint_r>
  804e7c:	103c061e 	bne	r2,zero,803e98 <___vfprintf_internal_r+0x6e0>
  804e80:	dc800e17 	ldw	r18,56(sp)
  804e84:	dc400d17 	ldw	r17,52(sp)
  804e88:	d8c01904 	addi	r3,sp,100
  804e8c:	003fee06 	br	804e48 <___vfprintf_internal_r+0x1690>
  804e90:	3c000017 	ldw	r16,0(r7)
  804e94:	0023883a 	mov	r17,zero
  804e98:	39c00104 	addi	r7,r7,4
  804e9c:	d9c14015 	stw	r7,1280(sp)
  804ea0:	003e9206 	br	8048ec <___vfprintf_internal_r+0x1134>
  804ea4:	d9401904 	addi	r5,sp,100
  804ea8:	dd000f04 	addi	r20,sp,60
  804eac:	d9414115 	stw	r5,1284(sp)
  804eb0:	d9814417 	ldw	r6,1296(sp)
  804eb4:	880a973a 	slli	r5,r17,28
  804eb8:	8004d13a 	srli	r2,r16,4
  804ebc:	810003cc 	andi	r4,r16,15
  804ec0:	3109883a 	add	r4,r6,r4
  804ec4:	2884b03a 	or	r2,r5,r2
  804ec8:	21400003 	ldbu	r5,0(r4)
  804ecc:	d9014117 	ldw	r4,1284(sp)
  804ed0:	8806d13a 	srli	r3,r17,4
  804ed4:	1021883a 	mov	r16,r2
  804ed8:	213fffc4 	addi	r4,r4,-1
  804edc:	d9014115 	stw	r4,1284(sp)
  804ee0:	d9814117 	ldw	r6,1284(sp)
  804ee4:	10c8b03a 	or	r4,r2,r3
  804ee8:	1823883a 	mov	r17,r3
  804eec:	31400005 	stb	r5,0(r6)
  804ef0:	203fef1e 	bne	r4,zero,804eb0 <___vfprintf_internal_r+0x16f8>
  804ef4:	003ccb06 	br	804224 <___vfprintf_internal_r+0xa6c>
  804ef8:	00800c04 	movi	r2,48
  804efc:	d98018c4 	addi	r6,sp,99
  804f00:	dd000f04 	addi	r20,sp,60
  804f04:	d88018c5 	stb	r2,99(sp)
  804f08:	d9814115 	stw	r6,1284(sp)
  804f0c:	003cc506 	br	804224 <___vfprintf_internal_r+0xa6c>
  804f10:	dc400d17 	ldw	r17,52(sp)
  804f14:	07002074 	movhi	fp,129
  804f18:	e7002e84 	addi	fp,fp,186
  804f1c:	003bc706 	br	803e3c <___vfprintf_internal_r+0x684>
  804f20:	d9414c17 	ldw	r5,1328(sp)
  804f24:	2880040c 	andi	r2,r5,16
  804f28:	10007c26 	beq	r2,zero,80511c <___vfprintf_internal_r+0x1964>
  804f2c:	38800017 	ldw	r2,0(r7)
  804f30:	39c00104 	addi	r7,r7,4
  804f34:	d9c14015 	stw	r7,1280(sp)
  804f38:	d9814b17 	ldw	r6,1324(sp)
  804f3c:	d9c14017 	ldw	r7,1280(sp)
  804f40:	11800015 	stw	r6,0(r2)
  804f44:	003a7806 	br	803928 <___vfprintf_internal_r+0x170>
  804f48:	d9014f17 	ldw	r4,1340(sp)
  804f4c:	b00b883a 	mov	r5,r22
  804f50:	d9800c04 	addi	r6,sp,48
  804f54:	08037600 	call	803760 <__sprint_r>
  804f58:	103bcf1e 	bne	r2,zero,803e98 <___vfprintf_internal_r+0x6e0>
  804f5c:	dc800e17 	ldw	r18,56(sp)
  804f60:	dc400d17 	ldw	r17,52(sp)
  804f64:	d8c01904 	addi	r3,sp,100
  804f68:	d9014717 	ldw	r4,1308(sp)
  804f6c:	d9414117 	ldw	r5,1284(sp)
  804f70:	8c400044 	addi	r17,r17,1
  804f74:	9125883a 	add	r18,r18,r4
  804f78:	008001c4 	movi	r2,7
  804f7c:	19400015 	stw	r5,0(r3)
  804f80:	19000115 	stw	r4,4(r3)
  804f84:	dc800e15 	stw	r18,56(sp)
  804f88:	dc400d15 	stw	r17,52(sp)
  804f8c:	147cee16 	blt	r2,r17,804348 <___vfprintf_internal_r+0xb90>
  804f90:	18c00204 	addi	r3,r3,8
  804f94:	003b8606 	br	803db0 <___vfprintf_internal_r+0x5f8>
  804f98:	38c00017 	ldw	r3,0(r7)
  804f9c:	39000204 	addi	r4,r7,8
  804fa0:	d9014015 	stw	r4,1280(sp)
  804fa4:	d8c14215 	stw	r3,1288(sp)
  804fa8:	39c00117 	ldw	r7,4(r7)
  804fac:	d9c14315 	stw	r7,1292(sp)
  804fb0:	003e2006 	br	804834 <___vfprintf_internal_r+0x107c>
  804fb4:	0005883a 	mov	r2,zero
  804fb8:	1409c83a 	sub	r4,r2,r16
  804fbc:	1105803a 	cmpltu	r2,r2,r4
  804fc0:	044bc83a 	sub	r5,zero,r17
  804fc4:	2885c83a 	sub	r2,r5,r2
  804fc8:	2021883a 	mov	r16,r4
  804fcc:	1023883a 	mov	r17,r2
  804fd0:	01000044 	movi	r4,1
  804fd4:	00800b44 	movi	r2,45
  804fd8:	d8800405 	stb	r2,16(sp)
  804fdc:	003c8406 	br	8041f0 <___vfprintf_internal_r+0xa38>
  804fe0:	d9014f17 	ldw	r4,1340(sp)
  804fe4:	b00b883a 	mov	r5,r22
  804fe8:	d9800c04 	addi	r6,sp,48
  804fec:	08037600 	call	803760 <__sprint_r>
  804ff0:	103ba91e 	bne	r2,zero,803e98 <___vfprintf_internal_r+0x6e0>
  804ff4:	dc800e17 	ldw	r18,56(sp)
  804ff8:	dc400d17 	ldw	r17,52(sp)
  804ffc:	d9000517 	ldw	r4,20(sp)
  805000:	d9401904 	addi	r5,sp,100
  805004:	003da706 	br	8046a4 <___vfprintf_internal_r+0xeec>
  805008:	d9014f17 	ldw	r4,1340(sp)
  80500c:	b00b883a 	mov	r5,r22
  805010:	d9800c04 	addi	r6,sp,48
  805014:	08037600 	call	803760 <__sprint_r>
  805018:	103b9f1e 	bne	r2,zero,803e98 <___vfprintf_internal_r+0x6e0>
  80501c:	dc800e17 	ldw	r18,56(sp)
  805020:	dc400d17 	ldw	r17,52(sp)
  805024:	d9000517 	ldw	r4,20(sp)
  805028:	d8c01904 	addi	r3,sp,100
  80502c:	003d9106 	br	804674 <___vfprintf_internal_r+0xebc>
  805030:	07002074 	movhi	fp,129
  805034:	e7002a84 	addi	fp,fp,170
  805038:	9425883a 	add	r18,r18,r16
  80503c:	8c400044 	addi	r17,r17,1
  805040:	008001c4 	movi	r2,7
  805044:	1f000015 	stw	fp,0(r3)
  805048:	1c000115 	stw	r16,4(r3)
  80504c:	dc800e15 	stw	r18,56(sp)
  805050:	dc400d15 	stw	r17,52(sp)
  805054:	147fbc16 	blt	r2,r17,804f48 <___vfprintf_internal_r+0x1790>
  805058:	18c00204 	addi	r3,r3,8
  80505c:	003fc206 	br	804f68 <___vfprintf_internal_r+0x17b0>
  805060:	d9014f17 	ldw	r4,1340(sp)
  805064:	b00b883a 	mov	r5,r22
  805068:	d9800c04 	addi	r6,sp,48
  80506c:	08037600 	call	803760 <__sprint_r>
  805070:	103b891e 	bne	r2,zero,803e98 <___vfprintf_internal_r+0x6e0>
  805074:	dc800e17 	ldw	r18,56(sp)
